; Listing generated by Microsoft (R) Optimizing Compiler Version 19.28.29913.0 

include listing.inc

INCLUDELIB LIBCMT
INCLUDELIB OLDNAMES

PUBLIC	__local_stdio_printf_options
PUBLIC	__local_stdio_scanf_options
PUBLIC	_vfprintf_l
PUBLIC	printf
PUBLIC	_vfscanf_l
PUBLIC	scanf
PUBLIC	main
PUBLIC	DllMain
EXTRN	__acrt_iob_func:PROC
EXTRN	__stdio_common_vfprintf:PROC
EXTRN	__stdio_common_vfscanf:PROC
EXTRN	__imp_WinExec:PROC
EXTRN	exit:PROC
_DATA	SEGMENT
COMM	?_OptionsStorage@?1??__local_stdio_printf_options@@9@9:QWORD							; `__local_stdio_printf_options'::`2'::_OptionsStorage
COMM	?_OptionsStorage@?1??__local_stdio_scanf_options@@9@9:QWORD							; `__local_stdio_scanf_options'::`2'::_OptionsStorage
_DATA	ENDS
;	COMDAT pdata
pdata	SEGMENT
$pdata$_vfprintf_l DD imagerel $LN3
	DD	imagerel $LN3+67
	DD	imagerel $unwind$_vfprintf_l
pdata	ENDS
;	COMDAT pdata
pdata	SEGMENT
$pdata$printf DD imagerel $LN3
	DD	imagerel $LN3+87
	DD	imagerel $unwind$printf
pdata	ENDS
;	COMDAT pdata
pdata	SEGMENT
$pdata$_vfscanf_l DD imagerel $LN3
	DD	imagerel $LN3+67
	DD	imagerel $unwind$_vfscanf_l
pdata	ENDS
;	COMDAT pdata
pdata	SEGMENT
$pdata$scanf DD	imagerel $LN3
	DD	imagerel $LN3+84
	DD	imagerel $unwind$scanf
pdata	ENDS
pdata	SEGMENT
$pdata$main DD	imagerel $LN12
	DD	imagerel $LN12+228
	DD	imagerel $unwind$main
$pdata$DllMain DD imagerel $LN3
	DD	imagerel $LN3+30
	DD	imagerel $unwind$DllMain
pdata	ENDS
_DATA	SEGMENT
$SG98537 DB	'Enter two numbers(intervals): ', 00H
	ORG $+1
$SG98538 DB	'%d %d', 00H
	ORG $+2
$SG98539 DB	'Prime numbers between %d and %d are: ', 00H
	ORG $+2
$SG98543 DB	'%d ', 00H
$SG98544 DB	'calc', 00H
_DATA	ENDS
xdata	SEGMENT
$unwind$main DD	010401H
	DD	06204H
$unwind$DllMain DD 011201H
	DD	04212H
xdata	ENDS
;	COMDAT xdata
xdata	SEGMENT
$unwind$scanf DD 011801H
	DD	06218H
xdata	ENDS
;	COMDAT xdata
xdata	SEGMENT
$unwind$_vfscanf_l DD 011801H
	DD	06218H
xdata	ENDS
;	COMDAT xdata
xdata	SEGMENT
$unwind$printf DD 011801H
	DD	06218H
xdata	ENDS
;	COMDAT xdata
xdata	SEGMENT
$unwind$_vfprintf_l DD 011801H
	DD	06218H
xdata	ENDS
; Function compile flags: /Odtp
_TEXT	SEGMENT
hinstDLL$ = 48
fdwReason$ = 56
lpvReserved$ = 64
DllMain	PROC
; File C:\Users\matti\Desktop\Magistrale\tesi\poc_detection\temp_dir\dataset_expansion_programs\manella\foobar\exploits_and_permutations\exp17_with_prime.c
; Line 59
$LN3:
	mov	QWORD PTR [rsp+24], r8
	mov	DWORD PTR [rsp+16], edx
	mov	QWORD PTR [rsp+8], rcx
	sub	rsp, 40					; 00000028H
; Line 60
	call	main
; Line 61
	xor	eax, eax
; Line 62
	add	rsp, 40					; 00000028H
	ret	0
DllMain	ENDP
_TEXT	ENDS
; Function compile flags: /Odtp
_TEXT	SEGMENT
low$ = 32
i$ = 36
high$ = 40
flag$ = 44
main	PROC
; File C:\Users\matti\Desktop\Magistrale\tesi\poc_detection\temp_dir\dataset_expansion_programs\manella\foobar\exploits_and_permutations\exp17_with_prime.c
; Line 22
$LN12:
	sub	rsp, 56					; 00000038H
; Line 24
	lea	rcx, OFFSET FLAT:$SG98537
	call	printf
; Line 25
	lea	r8, QWORD PTR high$[rsp]
	lea	rdx, QWORD PTR low$[rsp]
	lea	rcx, OFFSET FLAT:$SG98538
	call	scanf
; Line 26
	mov	r8d, DWORD PTR high$[rsp]
	mov	edx, DWORD PTR low$[rsp]
	lea	rcx, OFFSET FLAT:$SG98539
	call	printf
$LN11@main:
$LN2@main:
; Line 29
	mov	eax, DWORD PTR high$[rsp]
	cmp	DWORD PTR low$[rsp], eax
	jge	SHORT $LN3@main
; Line 30
	mov	DWORD PTR flag$[rsp], 0
; Line 33
	cmp	DWORD PTR low$[rsp], 1
	jg	SHORT $LN7@main
; Line 34
	mov	eax, DWORD PTR low$[rsp]
	inc	eax
	mov	DWORD PTR low$[rsp], eax
; Line 35
	jmp	SHORT $LN2@main
$LN7@main:
; Line 39
	mov	DWORD PTR i$[rsp], 2
	jmp	SHORT $LN6@main
$LN4@main:
	mov	eax, DWORD PTR i$[rsp]
	inc	eax
	mov	DWORD PTR i$[rsp], eax
$LN6@main:
	mov	eax, DWORD PTR low$[rsp]
	cdq
	sub	eax, edx
	sar	eax, 1
	cmp	DWORD PTR i$[rsp], eax
	jg	SHORT $LN5@main
; Line 41
	mov	eax, DWORD PTR low$[rsp]
	cdq
	idiv	DWORD PTR i$[rsp]
	mov	eax, edx
	test	eax, eax
	jne	SHORT $LN8@main
; Line 42
	mov	DWORD PTR flag$[rsp], 1
; Line 43
	jmp	SHORT $LN5@main
$LN8@main:
; Line 45
	jmp	SHORT $LN4@main
$LN5@main:
; Line 47
	cmp	DWORD PTR flag$[rsp], 0
	jne	SHORT $LN9@main
; Line 48
	mov	edx, DWORD PTR low$[rsp]
	lea	rcx, OFFSET FLAT:$SG98543
	call	printf
$LN9@main:
; Line 52
	mov	eax, DWORD PTR low$[rsp]
	inc	eax
	mov	DWORD PTR low$[rsp], eax
; Line 53
	jmp	$LN11@main
$LN3@main:
; Line 54
	mov	edx, 1
	lea	rcx, OFFSET FLAT:$SG98544
	call	QWORD PTR __imp_WinExec
; Line 55
	xor	ecx, ecx
	call	exit
; Line 56
	xor	eax, eax
$LN10@main:
; Line 57
	add	rsp, 56					; 00000038H
	ret	0
main	ENDP
_TEXT	ENDS
; Function compile flags: /Odtp
;	COMDAT scanf
_TEXT	SEGMENT
_Result$ = 32
_ArgList$ = 40
_Format$ = 64
scanf	PROC						; COMDAT
; File C:\Program Files (x86)\Windows Kits\10\include\10.0.19041.0\ucrt\stdio.h
; Line 1282
$LN3:
	mov	QWORD PTR [rsp+8], rcx
	mov	QWORD PTR [rsp+16], rdx
	mov	QWORD PTR [rsp+24], r8
	mov	QWORD PTR [rsp+32], r9
	sub	rsp, 56					; 00000038H
; Line 1285
	lea	rax, QWORD PTR _Format$[rsp+8]
	mov	QWORD PTR _ArgList$[rsp], rax
; Line 1286
	xor	ecx, ecx
	call	__acrt_iob_func
	mov	r9, QWORD PTR _ArgList$[rsp]
	xor	r8d, r8d
	mov	rdx, QWORD PTR _Format$[rsp]
	mov	rcx, rax
	call	_vfscanf_l
	mov	DWORD PTR _Result$[rsp], eax
; Line 1287
	mov	QWORD PTR _ArgList$[rsp], 0
; Line 1288
	mov	eax, DWORD PTR _Result$[rsp]
; Line 1289
	add	rsp, 56					; 00000038H
	ret	0
scanf	ENDP
_TEXT	ENDS
; Function compile flags: /Odtp
;	COMDAT _vfscanf_l
_TEXT	SEGMENT
_Stream$ = 64
_Format$ = 72
_Locale$ = 80
_ArgList$ = 88
_vfscanf_l PROC						; COMDAT
; File C:\Program Files (x86)\Windows Kits\10\include\10.0.19041.0\ucrt\stdio.h
; Line 1064
$LN3:
	mov	QWORD PTR [rsp+32], r9
	mov	QWORD PTR [rsp+24], r8
	mov	QWORD PTR [rsp+16], rdx
	mov	QWORD PTR [rsp+8], rcx
	sub	rsp, 56					; 00000038H
; Line 1065
	call	__local_stdio_scanf_options
	mov	rcx, QWORD PTR _ArgList$[rsp]
	mov	QWORD PTR [rsp+32], rcx
	mov	r9, QWORD PTR _Locale$[rsp]
	mov	r8, QWORD PTR _Format$[rsp]
	mov	rdx, QWORD PTR _Stream$[rsp]
	mov	rcx, QWORD PTR [rax]
	call	__stdio_common_vfscanf
; Line 1068
	add	rsp, 56					; 00000038H
	ret	0
_vfscanf_l ENDP
_TEXT	ENDS
; Function compile flags: /Odtp
;	COMDAT printf
_TEXT	SEGMENT
_Result$ = 32
_ArgList$ = 40
_Format$ = 64
printf	PROC						; COMDAT
; File C:\Program Files (x86)\Windows Kits\10\include\10.0.19041.0\ucrt\stdio.h
; Line 956
$LN3:
	mov	QWORD PTR [rsp+8], rcx
	mov	QWORD PTR [rsp+16], rdx
	mov	QWORD PTR [rsp+24], r8
	mov	QWORD PTR [rsp+32], r9
	sub	rsp, 56					; 00000038H
; Line 959
	lea	rax, QWORD PTR _Format$[rsp+8]
	mov	QWORD PTR _ArgList$[rsp], rax
; Line 960
	mov	ecx, 1
	call	__acrt_iob_func
	mov	r9, QWORD PTR _ArgList$[rsp]
	xor	r8d, r8d
	mov	rdx, QWORD PTR _Format$[rsp]
	mov	rcx, rax
	call	_vfprintf_l
	mov	DWORD PTR _Result$[rsp], eax
; Line 961
	mov	QWORD PTR _ArgList$[rsp], 0
; Line 962
	mov	eax, DWORD PTR _Result$[rsp]
; Line 963
	add	rsp, 56					; 00000038H
	ret	0
printf	ENDP
_TEXT	ENDS
; Function compile flags: /Odtp
;	COMDAT _vfprintf_l
_TEXT	SEGMENT
_Stream$ = 64
_Format$ = 72
_Locale$ = 80
_ArgList$ = 88
_vfprintf_l PROC					; COMDAT
; File C:\Program Files (x86)\Windows Kits\10\include\10.0.19041.0\ucrt\stdio.h
; Line 644
$LN3:
	mov	QWORD PTR [rsp+32], r9
	mov	QWORD PTR [rsp+24], r8
	mov	QWORD PTR [rsp+16], rdx
	mov	QWORD PTR [rsp+8], rcx
	sub	rsp, 56					; 00000038H
; Line 645
	call	__local_stdio_printf_options
	mov	rcx, QWORD PTR _ArgList$[rsp]
	mov	QWORD PTR [rsp+32], rcx
	mov	r9, QWORD PTR _Locale$[rsp]
	mov	r8, QWORD PTR _Format$[rsp]
	mov	rdx, QWORD PTR _Stream$[rsp]
	mov	rcx, QWORD PTR [rax]
	call	__stdio_common_vfprintf
; Line 646
	add	rsp, 56					; 00000038H
	ret	0
_vfprintf_l ENDP
_TEXT	ENDS
; Function compile flags: /Odtp
;	COMDAT __local_stdio_scanf_options
_TEXT	SEGMENT
__local_stdio_scanf_options PROC			; COMDAT
; File C:\Program Files (x86)\Windows Kits\10\include\10.0.19041.0\ucrt\corecrt_stdio_config.h
; Line 102
	lea	rax, OFFSET FLAT:?_OptionsStorage@?1??__local_stdio_scanf_options@@9@9 ; `__local_stdio_scanf_options'::`2'::_OptionsStorage
; Line 103
	ret	0
__local_stdio_scanf_options ENDP
_TEXT	ENDS
; Function compile flags: /Odtp
;	COMDAT __local_stdio_printf_options
_TEXT	SEGMENT
__local_stdio_printf_options PROC			; COMDAT
; File C:\Program Files (x86)\Windows Kits\10\include\10.0.19041.0\ucrt\corecrt_stdio_config.h
; Line 92
	lea	rax, OFFSET FLAT:?_OptionsStorage@?1??__local_stdio_printf_options@@9@9 ; `__local_stdio_printf_options'::`2'::_OptionsStorage
; Line 93
	ret	0
__local_stdio_printf_options ENDP
_TEXT	ENDS
END
